(lp1
ccollections
OrderedDict
p2
((lp3
(lp4
S'Create tag'
p5
a(lp6
F0.00045110000000000001
aF0.00025300000000000002
aF0.000495
aF0.00045080000000000001
aF0.00045800000000000002
aF0.00043300000000000001
aF0.000437
aF0.00046490000000000002
aF0.00045110000000000001
aF0.00044109999999999999
aaa(lp7
S'Create challenge'
p8
a(lp9
F0.00012799999999999999
aF3.1e-06
aF2.9000000000000002e-06
aF2.0999999999999998e-06
aF1.9e-06
aF1.1999999999999999e-06
aF1.9e-06
aF1.9e-06
aF2.0999999999999998e-06
aF1.9e-06
aaa(lp10
S'Create proof'
p11
a(lp12
F0
aF0
aF0
aF0
aF0
aF0
aF0
aF0
aF0
aF0
aaa(lp13
S'Verify file'
p14
a(lp15
F1.29e-05
aF1.0000000000000001e-05
aF1.0000000000000001e-05
aF1.0000000000000001e-05
aF1.0000000000000001e-05
aF1.0000000000000001e-05
aF1.0000000000000001e-05
aF9.0999999999999993e-06
aF1.0000000000000001e-05
aF1.0000000000000001e-05
aaa(lp16
S'HEAD'
p17
a(lp18
I0
aaa(lp19
S'GET'
p20
a(lp21
I0
aaa(lp22
S'PUT'
p23
a(lp24
I0
aaa(lp25
S'COPY'
p26
a(lp27
I0
aaa(lp28
S'LIST'
p29
a(lp30
I0
aaa(lp31
S'POST'
p32
a(lp33
I0
aaa(lp34
S'Metadata'
p35
a(lp36
S'MAC-PDP:Block size 4096:# challenges 460:# threads 4:Filename ../../test-files/testfile_rand_2KB'
p37
aaa(lp38
S'Timestamp'
p39
a(lp40
I1347569658
aaa(lp41
S'Block size'
p42
a(lp43
I4096
aaa(lp44
S'# challenges'
p45
a(lp46
I460
aaa(lp47
S'# threads'
p48
a(lp49
I4
aaa(lp50
S'File size (kb)'
p51
a(lp52
S'2'
aaatRp53
ag2
((lp54
(lp55
S'Create tag'
p56
a(lp57
F0.0003879
aF0.00028400000000000002
aF0.00050620000000000005
aF0.00044799999999999999
aF0.00045990000000000001
aF0.00052499999999999997
aF0.00047610000000000003
aF0.00045899999999999999
aF0.00047209999999999998
aF0.00046299999999999998
aaa(lp58
S'Create challenge'
p59
a(lp60
F0.00015809999999999999
aF3.1e-06
aF1.9e-06
aF1.9e-06
aF2.0999999999999998e-06
aF1.9e-06
aF2.0999999999999998e-06
aF1.9e-06
aF1.9e-06
aF2.0999999999999998e-06
aaa(lp61
S'Create proof'
p62
a(lp63
F0
aF0
aF0
aF0
aF0
aF0
aF0
aF0
aF0
aF0
aaa(lp64
S'Verify file'
p65
a(lp66
F1.29e-05
aF1.0000000000000001e-05
aF1.0000000000000001e-05
aF1.0000000000000001e-05
aF1.0000000000000001e-05
aF1.0000000000000001e-05
aF1.0000000000000001e-05
aF1.0000000000000001e-05
aF1.0000000000000001e-05
aF8.8000000000000004e-06
aaa(lp67
S'HEAD'
p68
a(lp69
I0
aaa(lp70
S'GET'
p71
a(lp72
I0
aaa(lp73
S'PUT'
p74
a(lp75
I0
aaa(lp76
S'COPY'
p77
a(lp78
I0
aaa(lp79
S'LIST'
p80
a(lp81
I0
aaa(lp82
S'POST'
p83
a(lp84
I0
aaa(lp85
S'Metadata'
p86
a(lp87
S'MAC-PDP:Block size 4096:# challenges 460:# threads 4:Filename ../../test-files/testfile_rand_4KB'
p88
aaa(lp89
S'Timestamp'
p90
a(lp91
I1347569660
aaa(lp92
S'Block size'
p93
a(lp94
I4096
aaa(lp95
S'# challenges'
p96
a(lp97
I460
aaa(lp98
S'# threads'
p99
a(lp100
I4
aaa(lp101
g51
a(lp102
S'4'
aaatRp103
ag2
((lp104
(lp105
S'Create tag'
p106
a(lp107
F0.00044200000000000001
aF0.00035409999999999999
aF0.00052689999999999996
aF0.000464
aF0.00046210000000000001
aF0.00045300000000000001
aF0.00045899999999999999
aF0.00046109999999999999
aF0.00046210000000000001
aF0.00047679999999999999
aaa(lp108
S'Create challenge'
p109
a(lp110
F0.000144
aF3.1e-06
aF2.9000000000000002e-06
aF3.1e-06
aF1.9e-06
aF1.9e-06
aF3.1e-06
aF1.9e-06
aF3.1e-06
aF3.1e-06
aaa(lp111
S'Create proof'
p112
a(lp113
F0
aF0
aF0
aF0
aF9.9999999999999995e-07
aF0
aF0
aF0
aF0
aF0
aaa(lp114
S'Verify file'
p115
a(lp116
F2.3099999999999999e-05
aF2.0000000000000002e-05
aF2.0000000000000002e-05
aF3.6999999999999998e-05
aF2.0000000000000002e-05
aF1.88e-05
aF1.88e-05
aF2.0000000000000002e-05
aF1.91e-05
aF2.0000000000000002e-05
aaa(lp117
S'HEAD'
p118
a(lp119
I0
aaa(lp120
S'GET'
p121
a(lp122
I0
aaa(lp123
S'PUT'
p124
a(lp125
I0
aaa(lp126
S'COPY'
p127
a(lp128
I0
aaa(lp129
S'LIST'
p130
a(lp131
I0
aaa(lp132
S'POST'
p133
a(lp134
I0
aaa(lp135
S'Metadata'
p136
a(lp137
S'MAC-PDP:Block size 4096:# challenges 460:# threads 4:Filename ../../test-files/testfile_rand_8KB'
p138
aaa(lp139
S'Timestamp'
p140
a(lp141
I1347569662
aaa(lp142
S'Block size'
p143
a(lp144
I4096
aaa(lp145
S'# challenges'
p146
a(lp147
I460
aaa(lp148
S'# threads'
p149
a(lp150
I4
aaa(lp151
g51
a(lp152
S'8'
aaatRp153
ag2
((lp154
(lp155
S'Create tag'
p156
a(lp157
F0.00044299999999999998
aF0.0002968
aF0.00053600000000000002
aF0.00050000000000000001
aF0.00048999999999999998
aF0.00049109999999999996
aF0.00047990000000000001
aF0.00048799999999999999
aF0.00049899999999999999
aF0.00048999999999999998
aaa(lp158
S'Create challenge'
p159
a(lp160
F0.00012899999999999999
aF3.8e-06
aF4.0999999999999997e-06
aF3.1e-06
aF4.0999999999999997e-06
aF3.8e-06
aF4.0999999999999997e-06
aF4.0999999999999997e-06
aF4.0999999999999997e-06
aF2.9000000000000002e-06
aaa(lp161
S'Create proof'
p162
a(lp163
F0
aF0
aF0
aF0
aF0
aF0
aF0
aF0
aF0
aF0
aaa(lp164
S'Verify file'
p165
a(lp166
F4.2899999999999999e-05
aF3.8899999999999997e-05
aF5.7200000000000001e-05
aF3.8899999999999997e-05
aF3.9100000000000002e-05
aF3.9799999999999998e-05
aF3.9100000000000002e-05
aF3.9100000000000002e-05
aF3.9799999999999998e-05
aF3.9100000000000002e-05
aaa(lp167
S'HEAD'
p168
a(lp169
I0
aaa(lp170
S'GET'
p171
a(lp172
I0
aaa(lp173
S'PUT'
p174
a(lp175
I0
aaa(lp176
S'COPY'
p177
a(lp178
I0
aaa(lp179
S'LIST'
p180
a(lp181
I0
aaa(lp182
S'POST'
p183
a(lp184
I0
aaa(lp185
S'Metadata'
p186
a(lp187
S'MAC-PDP:Block size 4096:# challenges 460:# threads 4:Filename ../../test-files/testfile_rand_16KB'
p188
aaa(lp189
S'Timestamp'
p190
a(lp191
I1347569664
aaa(lp192
S'Block size'
p193
a(lp194
I4096
aaa(lp195
S'# challenges'
p196
a(lp197
I460
aaa(lp198
S'# threads'
p199
a(lp200
I4
aaa(lp201
g51
a(lp202
S'16'
p203
aaatRp204
ag2
((lp205
(lp206
S'Create tag'
p207
a(lp208
F0.00047990000000000001
aF0.00035619999999999998
aF0.00055979999999999995
aF0.00056099999999999998
aF0.00052910000000000001
aF0.00053410000000000003
aF0.0005262
aF0.0005419
aF0.00052309999999999998
aF0.00052189999999999995
aaa(lp209
S'Create challenge'
p210
a(lp211
F0.00013210000000000001
aF6.0000000000000002e-06
aF6.0000000000000002e-06
aF5.0000000000000004e-06
aF5.0000000000000004e-06
aF6.0000000000000002e-06
aF6.0000000000000002e-06
aF6.0000000000000002e-06
aF5.0000000000000004e-06
aF1.19e-05
aaa(lp212
S'Create proof'
p213
a(lp214
F0
aF0
aF0
aF0
aF0
aF0
aF0
aF0
aF0
aF0
aaa(lp215
S'Verify file'
p216
a(lp217
F8.2000000000000001e-05
aF7.7999999999999999e-05
aF7.8200000000000003e-05
aF0.00010900000000000001
aF0.00011400000000000001
aF7.7999999999999999e-05
aF7.7999999999999999e-05
aF7.8200000000000003e-05
aF7.7999999999999999e-05
aF8.8900000000000006e-05
aaa(lp218
S'HEAD'
p219
a(lp220
I0
aaa(lp221
S'GET'
p222
a(lp223
I0
aaa(lp224
S'PUT'
p225
a(lp226
I0
aaa(lp227
S'COPY'
p228
a(lp229
I0
aaa(lp230
S'LIST'
p231
a(lp232
I0
aaa(lp233
S'POST'
p234
a(lp235
I0
aaa(lp236
S'Metadata'
p237
a(lp238
S'MAC-PDP:Block size 4096:# challenges 460:# threads 4:Filename ../../test-files/testfile_rand_32KB'
p239
aaa(lp240
S'Timestamp'
p241
a(lp242
I1347569666
aaa(lp243
S'Block size'
p244
a(lp245
I4096
aaa(lp246
S'# challenges'
p247
a(lp248
I460
aaa(lp249
S'# threads'
p250
a(lp251
I4
aaa(lp252
g51
a(lp253
S'32'
p254
aaatRp255
ag2
((lp256
(lp257
S'Create tag'
p258
a(lp259
F0.00058600000000000004
aF0.00043609999999999998
aF0.00065709999999999998
aF0.00061990000000000005
aF0.0006311
aF0.00062699999999999995
aF0.00061890000000000003
aF0.00062009999999999995
aF0.00062679999999999995
aF0.00062609999999999999
aaa(lp260
S'Create challenge'
p261
a(lp262
F0.00013999999999999999
aF1.1e-05
aF9.0999999999999993e-06
aF1.19e-05
aF8.1000000000000004e-06
aF8.8000000000000004e-06
aF9.0999999999999993e-06
aF9.0999999999999993e-06
aF1.5999999999999999e-05
aF1.1e-05
aaa(lp263
S'Create proof'
p264
a(lp265
F0
aF0
aF0
aF0
aF0
aF0
aF0
aF0
aF0
aF0
aaa(lp266
S'Verify file'
p267
a(lp268
F0.00016210000000000001
aF0.00019880000000000001
aF0.00015899999999999999
aF0.00015809999999999999
aF0.00017689999999999999
aF0.00015899999999999999
aF0.00015809999999999999
aF0.00017000000000000001
aF0.00015809999999999999
aF0.00015779999999999999
aaa(lp269
S'HEAD'
p270
a(lp271
I0
aaa(lp272
S'GET'
p273
a(lp274
I0
aaa(lp275
S'PUT'
p276
a(lp277
I0
aaa(lp278
S'COPY'
p279
a(lp280
I0
aaa(lp281
S'LIST'
p282
a(lp283
I0
aaa(lp284
S'POST'
p285
a(lp286
I0
aaa(lp287
S'Metadata'
p288
a(lp289
S'MAC-PDP:Block size 4096:# challenges 460:# threads 4:Filename ../../test-files/testfile_rand_64KB'
p290
aaa(lp291
S'Timestamp'
p292
a(lp293
I1347569669
aaa(lp294
S'Block size'
p295
a(lp296
I4096
aaa(lp297
S'# challenges'
p298
a(lp299
I460
aaa(lp300
S'# threads'
p301
a(lp302
I4
aaa(lp303
g51
a(lp304
S'64'
p305
aaatRp306
ag2
((lp307
(lp308
S'Create tag'
p309
a(lp310
F0.00074700000000000005
aF0.00060510000000000002
aF0.00085689999999999996
aF0.00079509999999999997
aF0.00079889999999999996
aF0.00078200000000000003
aF0.00081899999999999996
aF0.00081300000000000003
aF0.00082399999999999997
aF0.00079009999999999996
aaa(lp311
S'Create challenge'
p312
a(lp313
F0.00016899999999999999
aF1.5999999999999999e-05
aF1.7200000000000001e-05
aF1.5e-05
aF1.5999999999999999e-05
aF1.7900000000000001e-05
aF1.5999999999999999e-05
aF1.5999999999999999e-05
aF1.8099999999999999e-05
aF1.6900000000000001e-05
aaa(lp314
S'Create proof'
p315
a(lp316
F0
aF0
aF0
aF1.1999999999999999e-06
aF0
aF0
aF0
aF0
aF0
aF0
aaa(lp317
S'Verify file'
p318
a(lp319
F0.00034000000000000002
aF0.00032000000000000003
aF0.00031300000000000002
aF0.00032689999999999998
aF0.00032000000000000003
aF0.00031300000000000002
aF0.00032709999999999998
aF0.00031300000000000002
aF0.00032000000000000003
aF0.00032590000000000001
aaa(lp320
S'HEAD'
p321
a(lp322
I0
aaa(lp323
S'GET'
p324
a(lp325
I0
aaa(lp326
S'PUT'
p327
a(lp328
I0
aaa(lp329
S'COPY'
p330
a(lp331
I0
aaa(lp332
S'LIST'
p333
a(lp334
I0
aaa(lp335
S'POST'
p336
a(lp337
I0
aaa(lp338
S'Metadata'
p339
a(lp340
S'MAC-PDP:Block size 4096:# challenges 460:# threads 4:Filename ../../test-files/testfile_rand_128KB'
p341
aaa(lp342
S'Timestamp'
p343
a(lp344
I1347569671
aaa(lp345
S'Block size'
p346
a(lp347
I4096
aaa(lp348
S'# challenges'
p349
a(lp350
I460
aaa(lp351
S'# threads'
p352
a(lp353
I4
aaa(lp354
g51
a(lp355
S'128'
p356
aaatRp357
ag2
((lp358
(lp359
S'Create tag'
p360
a(lp361
F0.0011439
aF0.0009389
aF0.0011871
aF0.0011498999999999999
aF0.0011339
aF0.0011529999999999999
aF0.0012021
aF0.0011299000000000001
aF0.0011310999999999999
aF0.0011238999999999999
aaa(lp362
S'Create challenge'
p363
a(lp364
F0.000176
aF3.1900000000000003e-05
aF3.1900000000000003e-05
aF3.1000000000000001e-05
aF2.9099999999999999e-05
aF4.1999999999999998e-05
aF2.9099999999999999e-05
aF3.1900000000000003e-05
aF3.1000000000000001e-05
aF2.9099999999999999e-05
aaa(lp365
S'Create proof'
p366
a(lp367
F0
aF0
aF0
aF9.9999999999999995e-07
aF0
aF0
aF0
aF0
aF0
aF0
aaa(lp368
S'Verify file'
p369
a(lp370
F0.00064210000000000005
aF0.00062390000000000004
aF0.00064179999999999999
aF0.00063610000000000001
aF0.00062390000000000004
aF0.0006311
aF0.000638
aF0.00064800000000000003
aF0.00063900000000000003
aF0.000638
aaa(lp371
S'HEAD'
p372
a(lp373
I0
aaa(lp374
S'GET'
p375
a(lp376
I0
aaa(lp377
S'PUT'
p378
a(lp379
I0
aaa(lp380
S'COPY'
p381
a(lp382
I0
aaa(lp383
S'LIST'
p384
a(lp385
I0
aaa(lp386
S'POST'
p387
a(lp388
I0
aaa(lp389
S'Metadata'
p390
a(lp391
S'MAC-PDP:Block size 4096:# challenges 460:# threads 4:Filename ../../test-files/testfile_rand_256KB'
p392
aaa(lp393
S'Timestamp'
p394
a(lp395
I1347569674
aaa(lp396
S'Block size'
p397
a(lp398
I4096
aaa(lp399
S'# challenges'
p400
a(lp401
I460
aaa(lp402
S'# threads'
p403
a(lp404
I4
aaa(lp405
g51
a(lp406
S'256'
p407
aaatRp408
ag2
((lp409
(lp410
S'Create tag'
p411
a(lp412
F0.0018559
aF0.001653
aF0.0019011
aF0.001838
aF0.0018239
aF0.0018159999999999999
aF0.0018561000000000001
aF0.0018488999999999999
aF0.0018228999999999999
aF0.0018251000000000001
aaa(lp413
S'Create challenge'
p414
a(lp415
F0.0002029
aF5.91e-05
aF6.0800000000000001e-05
aF6.3200000000000005e-05
aF5.7000000000000003e-05
aF5.7000000000000003e-05
aF6.2899999999999997e-05
aF5.7899999999999998e-05
aF5.7200000000000001e-05
aF5.4799999999999997e-05
aaa(lp416
S'Create proof'
p417
a(lp418
F0
aF0
aF0
aF0
aF0
aF0
aF0
aF0
aF0
aF0
aaa(lp419
S'Verify file'
p420
a(lp421
F0.0012838999999999999
aF0.0012409999999999999
aF0.001343
aF0.001312
aF0.0012409999999999999
aF0.0012478999999999999
aF0.0012600000000000001
aF0.0012541
aF0.0012409999999999999
aF0.0012478999999999999
aaa(lp422
S'HEAD'
p423
a(lp424
I0
aaa(lp425
S'GET'
p426
a(lp427
I0
aaa(lp428
S'PUT'
p429
a(lp430
I0
aaa(lp431
S'COPY'
p432
a(lp433
I0
aaa(lp434
S'LIST'
p435
a(lp436
I0
aaa(lp437
S'POST'
p438
a(lp439
I0
aaa(lp440
S'Metadata'
p441
a(lp442
S'MAC-PDP:Block size 4096:# challenges 460:# threads 4:Filename ../../test-files/testfile_rand_512KB'
p443
aaa(lp444
S'Timestamp'
p445
a(lp446
I1347569677
aaa(lp447
S'Block size'
p448
a(lp449
I4096
aaa(lp450
S'# challenges'
p451
a(lp452
I460
aaa(lp453
S'# threads'
p454
a(lp455
I4
aaa(lp456
g51
a(lp457
S'512'
p458
aaatRp459
ag2
((lp460
(lp461
S'Create tag'
p462
a(lp463
F0.0034220000000000001
aF0.0031070999999999998
aF0.003346
aF0.0032691999999999999
aF0.0038359000000000002
aF0.0034908999999999999
aF0.0033947999999999999
aF0.003264
aF0.0032461
aF0.0032450999999999999
aaa(lp464
S'Create challenge'
p465
a(lp466
F0.00027080000000000002
aF0.0001159
aF0.00012300000000000001
aF0.00012400000000000001
aF0.000118
aF0.00011900000000000001
aF0.00012210000000000001
aF0.00013090000000000001
aF0.0001211
aF0.0001171
aaa(lp467
S'Create proof'
p468
a(lp469
F0
aF0
aF0
aF0
aF0
aF0
aF1.1999999999999999e-06
aF0
aF0
aF0
aaa(lp470
S'Verify file'
p471
a(lp472
F0.0025449000000000001
aF0.0026131000000000001
aF0.0025579999999999999
aF0.0025871000000000002
aF0.0025308000000000002
aF0.0025720999999999999
aF0.0025370000000000002
aF0.0025360999999999999
aF0.0025289000000000002
aF0.0025241
aaa(lp473
S'HEAD'
p474
a(lp475
I0
aaa(lp476
S'GET'
p477
a(lp478
I0
aaa(lp479
S'PUT'
p480
a(lp481
I0
aaa(lp482
S'COPY'
p483
a(lp484
I0
aaa(lp485
S'LIST'
p486
a(lp487
I0
aaa(lp488
S'POST'
p489
a(lp490
I0
aaa(lp491
S'Metadata'
p492
a(lp493
S'MAC-PDP:Block size 4096:# challenges 460:# threads 4:Filename ../../test-files/testfile_rand_1024KB'
p494
aaa(lp495
S'Timestamp'
p496
a(lp497
I1347569681
aaa(lp498
S'Block size'
p499
a(lp500
I4096
aaa(lp501
S'# challenges'
p502
a(lp503
I460
aaa(lp504
S'# threads'
p505
a(lp506
I4
aaa(lp507
g51
a(lp508
S'1024'
p509
aaatRp510
ag2
((lp511
(lp512
S'Create tag'
p513
a(lp514
F0.0063071000000000004
aF0.0059280000000000001
aF0.0062009999999999999
aF0.0062319999999999997
aF0.0061628999999999998
aF0.0060761000000000001
aF0.0061440000000000002
aF0.0060780000000000001
aF0.0060809000000000002
aF0.0061631000000000003
aaa(lp515
S'Create challenge'
p516
a(lp517
F0.00037100000000000002
aF0.000212
aF0.00022010000000000001
aF0.00021790000000000001
aF0.00021100000000000001
aF0.00023010000000000001
aF0.00021599999999999999
aF0.00021699999999999999
aF0.00022010000000000001
aF0.00023389999999999999
aaa(lp518
S'Create proof'
p519
a(lp520
F0
aF0
aF0
aF0
aF0
aF9.9999999999999995e-07
aF0
aF0
aF0
aF0
aaa(lp521
S'Verify file'
p522
a(lp523
F0.0048249
aF0.0046500999999999999
aF0.0046560999999999998
aF0.0046569999999999997
aF0.0049478999999999999
aF0.0047781000000000004
aF0.0046779999999999999
aF0.0046930000000000001
aF0.0047058999999999998
aF0.0047058999999999998
aaa(lp524
S'HEAD'
p525
a(lp526
I0
aaa(lp527
S'GET'
p528
a(lp529
I0
aaa(lp530
S'PUT'
p531
a(lp532
I0
aaa(lp533
S'COPY'
p534
a(lp535
I0
aaa(lp536
S'LIST'
p537
a(lp538
I0
aaa(lp539
S'POST'
p540
a(lp541
I0
aaa(lp542
S'Metadata'
p543
a(lp544
S'MAC-PDP:Block size 4096:# challenges 460:# threads 4:Filename ../../test-files/testfile_rand_2048KB'
p545
aaa(lp546
S'Timestamp'
p547
a(lp548
I1347569686
aaa(lp549
S'Block size'
p550
a(lp551
I4096
aaa(lp552
S'# challenges'
p553
a(lp554
I460
aaa(lp555
S'# threads'
p556
a(lp557
I4
aaa(lp558
g51
a(lp559
S'2048'
p560
aaatRp561
ag2
((lp562
(lp563
S'Create tag'
p564
a(lp565
F0.012104
aF0.011930899999999999
aF0.0122828
aF0.012047799999999999
aF0.012057999999999999
aF0.0121009
aF0.012005999999999999
aF0.012026999999999999
aF0.012267800000000001
aF0.050854900000000001
aaa(lp566
S'Create challenge'
p567
a(lp568
F0.00036190000000000001
aF0.00021599999999999999
aF0.0002041
aF0.00022890000000000001
aF0.00020689999999999999
aF0.000231
aF0.00021479999999999999
aF0.0002041
aF0.00023010000000000001
aF0.00020000000000000001
aaa(lp569
S'Create proof'
p570
a(lp571
F0
aF0
aF0
aF0
aF0
aF0
aF0
aF0
aF0
aF0
aaa(lp572
S'Verify file'
p573
a(lp574
F0.0047400000000000003
aF0.0046699000000000003
aF0.0046360000000000004
aF0.0047089999999999996
aF0.0046480000000000002
aF0.0046278999999999999
aF0.0046550999999999997
aF0.0048389000000000001
aF0.0046519999999999999
aF0.004653
aaa(lp575
S'HEAD'
p576
a(lp577
I0
aaa(lp578
S'GET'
p579
a(lp580
I0
aaa(lp581
S'PUT'
p582
a(lp583
I0
aaa(lp584
S'COPY'
p585
a(lp586
I0
aaa(lp587
S'LIST'
p588
a(lp589
I0
aaa(lp590
S'POST'
p591
a(lp592
I0
aaa(lp593
S'Metadata'
p594
a(lp595
S'MAC-PDP:Block size 4096:# challenges 460:# threads 4:Filename ../../test-files/testfile_rand_4096KB'
p596
aaa(lp597
S'Timestamp'
p598
a(lp599
I1347569693
aaa(lp600
S'Block size'
p601
a(lp602
I4096
aaa(lp603
S'# challenges'
p604
a(lp605
I460
aaa(lp606
S'# threads'
p607
a(lp608
I4
aaa(lp609
g51
a(lp610
S'4096'
p611
aaatRp612
ag2
((lp613
(lp614
S'Create tag'
p615
a(lp616
F0.023671899999999999
aF0.023708099999999999
aF0.0239639
aF0.023878099999999999
aF0.024379999999999999
aF0.0239201
aF0.023869000000000001
aF0.024169
aF0.023906899999999998
aF0.024000899999999999
aaa(lp617
S'Create challenge'
p618
a(lp619
F0.00044109999999999999
aF0.00019000000000000001
aF0.00019100000000000001
aF0.00021000000000000001
aF0.00019100000000000001
aF0.000212
aF0.00019120000000000001
aF0.00019379999999999999
aF0.0001972
aF0.00019000000000000001
aaa(lp620
S'Create proof'
p621
a(lp622
F0
aF0
aF9.9999999999999995e-07
aF0
aF0
aF0
aF0
aF0
aF0
aF0
aaa(lp623
S'Verify file'
p624
a(lp625
F0.0047631000000000001
aF0.0046629999999999996
aF0.0046538999999999999
aF0.0046670000000000001
aF0.0046439000000000003
aF0.0046541999999999998
aF0.0046667999999999996
aF0.0046451000000000001
aF0.0046560999999999998
aF0.0046568
aaa(lp626
S'HEAD'
p627
a(lp628
I0
aaa(lp629
S'GET'
p630
a(lp631
I0
aaa(lp632
S'PUT'
p633
a(lp634
I0
aaa(lp635
S'COPY'
p636
a(lp637
I0
aaa(lp638
S'LIST'
p639
a(lp640
I0
aaa(lp641
S'POST'
p642
a(lp643
I0
aaa(lp644
S'Metadata'
p645
a(lp646
S'MAC-PDP:Block size 4096:# challenges 460:# threads 4:Filename ../../test-files/testfile_rand_8192KB'
p647
aaa(lp648
S'Timestamp'
p649
a(lp650
I1347569705
aaa(lp651
S'Block size'
p652
a(lp653
I4096
aaa(lp654
S'# challenges'
p655
a(lp656
I460
aaa(lp657
S'# threads'
p658
a(lp659
I4
aaa(lp660
g51
a(lp661
S'8192'
p662
aaatRp663
ag2
((lp664
(lp665
S'Create tag'
p666
a(lp667
F0.047146100000000003
aF0.046729100000000003
aF0.048787799999999999
aF0.051786199999999998
aF0.068260899999999999
aF0.060826999999999999
aF0.059613899999999997
aF0.058874799999999998
aF0.048699899999999997
aF0.058060199999999999
aaa(lp668
S'Create challenge'
p669
a(lp670
F0.0003879
aF0.00018599999999999999
aF0.000185
aF0.00020909999999999999
aF0.00018599999999999999
aF0.000205
aF0.000185
aF0.00019000000000000001
aF0.00019790000000000001
aF0.00019100000000000001
aaa(lp671
S'Create proof'
p672
a(lp673
F0
aF0
aF0
aF0
aF0
aF0
aF0
aF0
aF0
aF0
aaa(lp674
S'Verify file'
p675
a(lp676
F0.0049100000000000003
aF0.0046670000000000001
aF0.0047140000000000003
aF0.0046711000000000001
aF0.0046617999999999998
aF0.0046610999999999996
aF0.0046569999999999997
aF0.0046949000000000001
aF0.0046721000000000002
aF0.0046461000000000002
aaa(lp677
S'HEAD'
p678
a(lp679
I0
aaa(lp680
S'GET'
p681
a(lp682
I0
aaa(lp683
S'PUT'
p684
a(lp685
I0
aaa(lp686
S'COPY'
p687
a(lp688
I0
aaa(lp689
S'LIST'
p690
a(lp691
I0
aaa(lp692
S'POST'
p693
a(lp694
I0
aaa(lp695
S'Metadata'
p696
a(lp697
S'MAC-PDP:Block size 4096:# challenges 460:# threads 4:Filename ../../test-files/testfile_rand_16384KB'
p698
aaa(lp699
S'Timestamp'
p700
a(lp701
I1347569728
aaa(lp702
S'Block size'
p703
a(lp704
I4096
aaa(lp705
S'# challenges'
p706
a(lp707
I460
aaa(lp708
S'# threads'
p709
a(lp710
I4
aaa(lp711
g51
a(lp712
S'16384'
p713
aaatRp714
ag2
((lp715
(lp716
S'Create tag'
p717
a(lp718
F0.093778100000000003
aF0.094154799999999997
aF0.1143909
aF0.1076672
aF0.098457799999999998
aF0.098033899999999993
aF0.099477999999999997
aF0.0988922
aF0.098498799999999997
aF0.098362900000000003
aaa(lp719
S'Create challenge'
p720
a(lp721
F0.00034590000000000001
aF0.000205
aF0.00018909999999999999
aF0.00018000000000000001
aF0.00020890000000000001
aF0.0001841
aF0.0001919
aF0.00018220000000000001
aF0.00018100000000000001
aF0.00020100000000000001
aaa(lp722
S'Create proof'
p723
a(lp724
F0
aF0
aF0
aF0
aF0
aF0
aF0
aF0
aF9.9999999999999995e-07
aF0
aaa(lp725
S'Verify file'
p726
a(lp727
F0.0048310999999999996
aF0.0046690000000000004
aF0.0047200000000000002
aF0.0046411000000000004
aF0.0046560999999999998
aF0.0046569999999999997
aF0.0046568
aF0.0048250999999999997
aF0.0046550999999999997
aF0.0046680000000000003
aaa(lp728
S'HEAD'
p729
a(lp730
I0
aaa(lp731
S'GET'
p732
a(lp733
I0
aaa(lp734
S'PUT'
p735
a(lp736
I0
aaa(lp737
S'COPY'
p738
a(lp739
I0
aaa(lp740
S'LIST'
p741
a(lp742
I0
aaa(lp743
S'POST'
p744
a(lp745
I0
aaa(lp746
S'Metadata'
p747
a(lp748
S'MAC-PDP:Block size 4096:# challenges 460:# threads 4:Filename ../../test-files/testfile_rand_32768KB'
p749
aaa(lp750
S'Timestamp'
p751
a(lp752
I1347569770
aaa(lp753
S'Block size'
p754
a(lp755
I4096
aaa(lp756
S'# challenges'
p757
a(lp758
I460
aaa(lp759
S'# threads'
p760
a(lp761
I4
aaa(lp762
g51
a(lp763
S'32768'
p764
aaatRp765
ag2
((lp766
(lp767
S'Create tag'
p768
a(lp769
F0.1847558
aF0.18663879999999999
aF0.18906310000000001
aF0.18757199999999999
aF0.18901109999999999
aF0.18895509999999999
aF0.19408010000000001
aF0.19243099999999999
aF0.20069100000000001
aF0.18831709999999999
aaa(lp770
S'Create challenge'
p771
a(lp772
F0.00036719999999999998
aF0.00019000000000000001
aF0.00020479999999999999
aF0.00018809999999999999
aF0.00018000000000000001
aF0.00024699999999999999
aF0.00018310000000000001
aF0.00019479999999999999
aF0.00021719999999999999
aF0.00018100000000000001
aaa(lp773
S'Create proof'
p774
a(lp775
F0
aF0
aF0
aF0
aF0
aF0
aF0
aF0
aF0
aF0
aaa(lp776
S'Verify file'
p777
a(lp778
F0.0047479000000000002
aF0.0046851999999999996
aF0.0046458000000000003
aF0.0048409000000000004
aF0.004653
aF0.0046680000000000003
aF0.0046601000000000004
aF0.0046610999999999996
aF0.0046468000000000004
aF0.0046591999999999996
aaa(lp779
S'HEAD'
p780
a(lp781
I0
aaa(lp782
S'GET'
p783
a(lp784
I0
aaa(lp785
S'PUT'
p786
a(lp787
I0
aaa(lp788
S'COPY'
p789
a(lp790
I0
aaa(lp791
S'LIST'
p792
a(lp793
I0
aaa(lp794
S'POST'
p795
a(lp796
I0
aaa(lp797
S'Metadata'
p798
a(lp799
S'MAC-PDP:Block size 4096:# challenges 460:# threads 4:Filename ../../test-files/testfile_rand_65536KB'
p800
aaa(lp801
S'Timestamp'
p802
a(lp803
I1347569849
aaa(lp804
S'Block size'
p805
a(lp806
I4096
aaa(lp807
S'# challenges'
p808
a(lp809
I460
aaa(lp810
S'# threads'
p811
a(lp812
I4
aaa(lp813
g51
a(lp814
S'65536'
p815
aaatRp816
ag2
((lp817
(lp818
S'Create tag'
p819
a(lp820
F0.36972500000000003
aF0.37207600000000002
aF0.37819219999999998
aF0.37589499999999998
aF0.37553690000000001
aF0.39557910000000002
aF0.39547399999999999
aF0.39180209999999999
aF0.39038709999999999
aF0.3933818
aaa(lp821
S'Create challenge'
p822
a(lp823
F0.00036410000000000001
aF0.00018880000000000001
aF0.00019000000000000001
aF0.00018809999999999999
aF0.0001841
aF0.00020689999999999999
aF0.0001829
aF0.00018120000000000001
aF0.00019790000000000001
aF0.00018310000000000001
aaa(lp824
S'Create proof'
p825
a(lp826
F0
aF0
aF0
aF0
aF0
aF0
aF0
aF0
aF0
aF0
aaa(lp827
S'Verify file'
p828
a(lp829
F0.0048881000000000003
aF0.0047349999999999996
aF0.0046760999999999999
aF0.0050139
aF0.0046519999999999999
aF0.0046538999999999999
aF0.0046451000000000001
aF0.0046369999999999996
aF0.0046420000000000003
aF0.0046489000000000001
aaa(lp830
S'HEAD'
p831
a(lp832
I0
aaa(lp833
S'GET'
p834
a(lp835
I0
aaa(lp836
S'PUT'
p837
a(lp838
I0
aaa(lp839
S'COPY'
p840
a(lp841
I0
aaa(lp842
S'LIST'
p843
a(lp844
I0
aaa(lp845
S'POST'
p846
a(lp847
I0
aaa(lp848
S'Metadata'
p849
a(lp850
S'MAC-PDP:Block size 4096:# challenges 460:# threads 4:Filename ../../test-files/testfile_rand_131072KB'
p851
aaa(lp852
S'Timestamp'
p853
a(lp854
I1347570005
aaa(lp855
S'Block size'
p856
a(lp857
I4096
aaa(lp858
S'# challenges'
p859
a(lp860
I460
aaa(lp861
S'# threads'
p862
a(lp863
I4
aaa(lp864
g51
a(lp865
S'131072'
p866
aaatRp867
ag2
((lp868
(lp869
S'Create tag'
p870
a(lp871
F0.74151299999999998
aF0.74092480000000005
aF0.75393010000000005
aF0.77351000000000003
aF0.7666039
aF0.77630999999999994
aF0.79653719999999995
aF0.75152399999999997
aF0.75246500000000005
aF0.75256800000000001
aaa(lp872
S'Create challenge'
p873
a(lp874
F0.0003769
aF0.00019809999999999999
aF0.0001838
aF0.00021220000000000001
aF0.0001838
aF0.0001841
aF0.00019689999999999999
aF0.00018809999999999999
aF0.00019100000000000001
aF0.0002019
aaa(lp875
S'Create proof'
p876
a(lp877
F0
aF0
aF0
aF0
aF0
aF0
aF0
aF0
aF0
aF0
aaa(lp878
S'Verify file'
p879
a(lp880
F0.0048288999999999997
aF0.0049960999999999998
aF0.0047200000000000002
aF0.0046658999999999997
aF0.0047051999999999997
aF0.0046508000000000001
aF0.0046971000000000001
aF0.004653
aF0.0046470000000000001
aF0.0046639000000000003
aaa(lp881
S'HEAD'
p882
a(lp883
I0
aaa(lp884
S'GET'
p885
a(lp886
I0
aaa(lp887
S'PUT'
p888
a(lp889
I0
aaa(lp890
S'COPY'
p891
a(lp892
I0
aaa(lp893
S'LIST'
p894
a(lp895
I0
aaa(lp896
S'POST'
p897
a(lp898
I0
aaa(lp899
S'Metadata'
p900
a(lp901
S'MAC-PDP:Block size 4096:# challenges 460:# threads 4:Filename ../../test-files/testfile_rand_262144KB'
p902
aaa(lp903
S'Timestamp'
p904
a(lp905
I1347570313
aaa(lp906
S'Block size'
p907
a(lp908
I4096
aaa(lp909
S'# challenges'
p910
a(lp911
I460
aaa(lp912
S'# threads'
p913
a(lp914
I4
aaa(lp915
g51
a(lp916
S'262144'
p917
aaatRp918
ag2
((lp919
(lp920
S'Create tag'
p921
a(lp922
F1.645273
aF1.6068899999999999
aF1.6494960999999999
aF1.6688780999999999
aF1.5858178000000001
aF1.5422667999999999
aF1.5490959
aF1.5853390999999999
aF1.5398209
aF1.6107689999999999
aaa(lp923
S'Create challenge'
p924
a(lp925
F0.00060700000000000001
aF0.00020000000000000001
aF0.00018599999999999999
aF0.000185
aF0.00021100000000000001
aF0.0001872
aF0.00020379999999999999
aF0.00018689999999999999
aF0.000195
aF0.00020220000000000001
aaa(lp926
S'Create proof'
p927
a(lp928
F9.9999999999999995e-07
aF0
aF0
aF0
aF0
aF0
aF0
aF0
aF0
aF0
aaa(lp929
S'Verify file'
p930
a(lp931
F0.0048469999999999997
aF0.0046500999999999999
aF0.0046538999999999999
aF0.0047231
aF0.0046420000000000003
aF0.0047277999999999999
aF0.0050201000000000004
aF0.0046560999999999998
aF0.0046639000000000003
aF0.0046449000000000004
aaa(lp932
S'HEAD'
p933
a(lp934
I0
aaa(lp935
S'GET'
p936
a(lp937
I0
aaa(lp938
S'PUT'
p939
a(lp940
I0
aaa(lp941
S'COPY'
p942
a(lp943
I0
aaa(lp944
S'LIST'
p945
a(lp946
I0
aaa(lp947
S'POST'
p948
a(lp949
I0
aaa(lp950
S'Metadata'
p951
a(lp952
S'MAC-PDP:Block size 4096:# challenges 460:# threads 4:Filename ../../test-files/testfile_rand_524288KB'
p953
aaa(lp954
S'Timestamp'
p955
a(lp956
I1347570928
aaa(lp957
S'Block size'
p958
a(lp959
I4096
aaa(lp960
S'# challenges'
p961
a(lp962
I460
aaa(lp963
S'# threads'
p964
a(lp965
I4
aaa(lp966
g51
a(lp967
S'524288'
p968
aaatRp969
ag2
((lp970
(lp971
S'Create tag'
p972
a(lp973
F3.6284580000000002
aF3.5117772
aF3.4959229999999999
aF3.2896299
aF3.4286211
aF3.2473350000000001
aF3.220685
aF3.2355730999999999
aF3.2206838000000002
aF3.1820300000000001
aaa(lp974
S'Create challenge'
p975
a(lp976
F0.00075389999999999995
aF0.0001919
aF0.00020719999999999999
aF0.00018789999999999999
aF0.00019689999999999999
aF0.0002632
aF0.00022479999999999999
aF0.00020000000000000001
aF0.00019909999999999999
aF0.00020599999999999999
aaa(lp977
S'Create proof'
p978
a(lp979
F0
aF0
aF0
aF0
aF0
aF0
aF0
aF0
aF0
aF0
aaa(lp980
S'Verify file'
p981
a(lp982
F0.0048900000000000002
aF0.0046711000000000001
aF0.0046508000000000001
aF0.0046541999999999998
aF0.0046617999999999998
aF0.0046591999999999996
aF0.0046549
aF0.0046610999999999996
aF0.0047228000000000001
aF0.0048912000000000001
aaa(lp983
S'HEAD'
p984
a(lp985
I0
aaa(lp986
S'GET'
p987
a(lp988
I0
aaa(lp989
S'PUT'
p990
a(lp991
I0
aaa(lp992
S'COPY'
p993
a(lp994
I0
aaa(lp995
S'LIST'
p996
a(lp997
I0
aaa(lp998
S'POST'
p999
a(lp1000
I0
aaa(lp1001
S'Metadata'
p1002
a(lp1003
S'MAC-PDP:Block size 4096:# challenges 460:# threads 4:Filename ../../test-files/testfile_rand_1048576KB'
p1004
aaa(lp1005
S'Timestamp'
p1006
a(lp1007
I1347572160
aaa(lp1008
S'Block size'
p1009
a(lp1010
I4096
aaa(lp1011
S'# challenges'
p1012
a(lp1013
I460
aaa(lp1014
S'# threads'
p1015
a(lp1016
I4
aaa(lp1017
g51
a(lp1018
S'1048576'
p1019
aaatRp1020
ag2
((lp1021
(lp1022
S'Create tag'
p1023
a(lp1024
F0.00072499999999999995
aF0.00061200000000000002
aF0.0004461
aF0.00050000000000000001
aF0.00044299999999999998
aF0.00045199999999999998
aF0.0004261
aF0.00043990000000000001
aF0.00046799999999999999
aF0.00048999999999999998
aaa(lp1025
S'Create challenge'
p1026
a(lp1027
F0.00012899999999999999
aF0.0001459
aF9.4900000000000003e-05
aF9.3200000000000002e-05
aF0.00010679999999999999
aF9.2e-05
aF9.1100000000000005e-05
aF9.3900000000000006e-05
aF9.2999999999999997e-05
aF9.2e-05
aaa(lp1028
S'Create proof'
p1029
a(lp1030
F4.4799999999999998e-05
aF5.5999999999999999e-05
aF5.5999999999999999e-05
aF5.2899999999999998e-05
aF4.7899999999999999e-05
aF4.6999999999999997e-05
aF4.4100000000000001e-05
aF4.1999999999999998e-05
aF5.7000000000000003e-05
aF4.7200000000000002e-05
aaa(lp1031
S'Verify file'
p1032
a(lp1033
F9.0099999999999995e-05
aF9.0799999999999998e-05
aF9.0099999999999995e-05
aF9.0099999999999995e-05
aF8.9900000000000003e-05
aF9.0099999999999995e-05
aF0.0001059
aF9.0099999999999995e-05
aF8.8900000000000006e-05
aF9.0099999999999995e-05
aaa(lp1034
S'HEAD'
p1035
a(lp1036
I0
aaa(lp1037
S'GET'
p1038
a(lp1039
I0
aaa(lp1040
S'PUT'
p1041
a(lp1042
I0
aaa(lp1043
S'COPY'
p1044
a(lp1045
I0
aaa(lp1046
S'LIST'
p1047
a(lp1048
I0
aaa(lp1049
S'POST'
p1050
a(lp1051
I0
aaa(lp1052
S'Metadata'
p1053
a(lp1054
S'CPOR:Block size 4096:PRF key size 20:ENC key size 32:MAC key size 20:lambda 80:Zp bits 80:# challenge blocks 80:# threads 4:Filename ../../test-files/testfile_rand_2KB'
p1055
aaa(lp1056
S'Timestamp'
p1057
a(lp1058
I1347569658
aaa(lp1059
S'Block size'
p1060
a(lp1061
I4096
aaa(lp1062
S'PRF key size'
p1063
a(lp1064
I20
aaa(lp1065
S'ENC key size'
p1066
a(lp1067
I32
aaa(lp1068
S'MAC key size'
p1069
a(lp1070
I20
aaa(lp1071
S'lambda'
p1072
a(lp1073
I80
aaa(lp1074
S'Zp bits'
p1075
a(lp1076
I80
aaa(lp1077
S'# challenge blocks'
p1078
a(lp1079
I80
aaa(lp1080
S'# threads'
p1081
a(lp1082
I4
aaa(lp1083
g51
a(lp1084
S'2'
aaatRp1085
ag2
((lp1086
(lp1087
S'Create tag'
p1088
a(lp1089
F0.00053600000000000002
aF0.00035500000000000001
aF0.000457
aF0.00045389999999999997
aF0.00044700000000000002
aF0.00043300000000000001
aF0.00049019999999999999
aF0.00043889999999999999
aF0.00044700000000000002
aF0.00042509999999999998
aaa(lp1090
S'Create challenge'
p1091
a(lp1092
F0.00015689999999999999
aF0.00010009999999999999
aF9.2999999999999997e-05
aF9.2999999999999997e-05
aF0.000103
aF9.2e-05
aF9.2e-05
aF9.0799999999999998e-05
aF9.1100000000000005e-05
aF0.0001121
aaa(lp1093
S'Create proof'
p1094
a(lp1095
F4.1999999999999998e-05
aF4.6e-05
aF5.1e-05
aF4.6e-05
aF4.8900000000000003e-05
aF6.2899999999999997e-05
aF4.8199999999999999e-05
aF4.3900000000000003e-05
aF6.9099999999999999e-05
aF4.1999999999999998e-05
aaa(lp1096
S'Verify file'
p1097
a(lp1098
F9.2e-05
aF0.00016899999999999999
aF9.1100000000000005e-05
aF8.9900000000000003e-05
aF9.0099999999999995e-05
aF9.7999999999999997e-05
aF8.9900000000000003e-05
aF9.0099999999999995e-05
aF8.9900000000000003e-05
aF9.0099999999999995e-05
aaa(lp1099
S'HEAD'
p1100
a(lp1101
I0
aaa(lp1102
S'GET'
p1103
a(lp1104
I0
aaa(lp1105
S'PUT'
p1106
a(lp1107
I0
aaa(lp1108
S'COPY'
p1109
a(lp1110
I0
aaa(lp1111
S'LIST'
p1112
a(lp1113
I0
aaa(lp1114
S'POST'
p1115
a(lp1116
I0
aaa(lp1117
S'Metadata'
p1118
a(lp1119
S'CPOR:Block size 4096:PRF key size 20:ENC key size 32:MAC key size 20:lambda 80:Zp bits 80:# challenge blocks 80:# threads 4:Filename ../../test-files/testfile_rand_4KB'
p1120
aaa(lp1121
S'Timestamp'
p1122
a(lp1123
I1347569660
aaa(lp1124
S'Block size'
p1125
a(lp1126
I4096
aaa(lp1127
S'PRF key size'
p1128
a(lp1129
I20
aaa(lp1130
S'ENC key size'
p1131
a(lp1132
I32
aaa(lp1133
S'MAC key size'
p1134
a(lp1135
I20
aaa(lp1136
S'lambda'
p1137
a(lp1138
I80
aaa(lp1139
S'Zp bits'
p1140
a(lp1141
I80
aaa(lp1142
S'# challenge blocks'
p1143
a(lp1144
I80
aaa(lp1145
S'# threads'
p1146
a(lp1147
I4
aaa(lp1148
g51
a(lp1149
S'4'
aaatRp1150
ag2
((lp1151
(lp1152
S'Create tag'
p1153
a(lp1154
F0.00055480000000000004
aF0.00043609999999999998
aF0.00052209999999999995
aF0.00046799999999999999
aF0.00051380000000000002
aF0.00045590000000000002
aF0.000504
aF0.00048490000000000002
aF0.00050089999999999998
aF0.00048799999999999999
aaa(lp1155
S'Create challenge'
p1156
a(lp1157
F0.00018909999999999999
aF0.000103
aF9.2999999999999997e-05
aF9.4900000000000003e-05
aF9.2999999999999997e-05
aF9.2999999999999997e-05
aF0.0001121
aF9.6100000000000005e-05
aF9.2999999999999997e-05
aF9.2999999999999997e-05
aaa(lp1158
S'Create proof'
p1159
a(lp1160
F8.5099999999999995e-05
aF0.00013999999999999999
aF8.8900000000000006e-05
aF8.42e-05
aF8.3900000000000006e-05
aF8.5099999999999995e-05
aF0.000108
aF8.2999999999999998e-05
aF9.3900000000000006e-05
aF8.2000000000000001e-05
aaa(lp1161
S'Verify file'
p1162
a(lp1163
F9.2999999999999997e-05
aF9.2999999999999997e-05
aF9.2e-05
aF0.00011519999999999999
aF9.2999999999999997e-05
aF9.1799999999999995e-05
aF9.3200000000000002e-05
aF9.1799999999999995e-05
aF9.8900000000000005e-05
aF9.2999999999999997e-05
aaa(lp1164
S'HEAD'
p1165
a(lp1166
I0
aaa(lp1167
S'GET'
p1168
a(lp1169
I0
aaa(lp1170
S'PUT'
p1171
a(lp1172
I0
aaa(lp1173
S'COPY'
p1174
a(lp1175
I0
aaa(lp1176
S'LIST'
p1177
a(lp1178
I0
aaa(lp1179
S'POST'
p1180
a(lp1181
I0
aaa(lp1182
S'Metadata'
p1183
a(lp1184
S'CPOR:Block size 4096:PRF key size 20:ENC key size 32:MAC key size 20:lambda 80:Zp bits 80:# challenge blocks 80:# threads 4:Filename ../../test-files/testfile_rand_8KB'
p1185
aaa(lp1186
S'Timestamp'
p1187
a(lp1188
I1347569662
aaa(lp1189
S'Block size'
p1190
a(lp1191
I4096
aaa(lp1192
S'PRF key size'
p1193
a(lp1194
I20
aaa(lp1195
S'ENC key size'
p1196
a(lp1197
I32
aaa(lp1198
S'MAC key size'
p1199
a(lp1200
I20
aaa(lp1201
S'lambda'
p1202
a(lp1203
I80
aaa(lp1204
S'Zp bits'
p1205
a(lp1206
I80
aaa(lp1207
S'# challenge blocks'
p1208
a(lp1209
I80
aaa(lp1210
S'# threads'
p1211
a(lp1212
I4
aaa(lp1213
g51
a(lp1214
S'8'
aaatRp1215
ag2
((lp1216
(lp1217
S'Create tag'
p1218
a(lp1219
F0.00068900000000000005
aF0.00050000000000000001
aF0.000571
aF0.00054410000000000005
aF0.00064019999999999995
aF0.00056789999999999998
aF0.00059199999999999997
aF0.00051710000000000005
aF0.00056510000000000002
aF0.00053189999999999997
aaa(lp1220
S'Create challenge'
p1221
a(lp1222
F0.000176
aF0.00010399999999999999
aF0.0001111
aF9.8900000000000005e-05
aF9.8900000000000005e-05
aF9.7e-05
aF9.7e-05
aF0.000108
aF9.8900000000000005e-05
aF9.7e-05
aaa(lp1223
S'Create proof'
p1224
a(lp1225
F0.00018909999999999999
aF0.000174
aF0.00018310000000000001
aF0.00018100000000000001
aF0.00015899999999999999
aF0.000176
aF0.00015090000000000001
aF0.00015589999999999999
aF0.00015689999999999999
aF0.00015190000000000001
aaa(lp1226
S'Verify file'
p1227
a(lp1228
F0.0001121
aF9.8900000000000005e-05
aF9.7e-05
aF9.7e-05
aF9.7e-05
aF0.000103
aF9.7e-05
aF9.7e-05
aF9.6799999999999995e-05
aF9.7e-05
aaa(lp1229
S'HEAD'
p1230
a(lp1231
I0
aaa(lp1232
S'GET'
p1233
a(lp1234
I0
aaa(lp1235
S'PUT'
p1236
a(lp1237
I0
aaa(lp1238
S'COPY'
p1239
a(lp1240
I0
aaa(lp1241
S'LIST'
p1242
a(lp1243
I0
aaa(lp1244
S'POST'
p1245
a(lp1246
I0
aaa(lp1247
S'Metadata'
p1248
a(lp1249
S'CPOR:Block size 4096:PRF key size 20:ENC key size 32:MAC key size 20:lambda 80:Zp bits 80:# challenge blocks 80:# threads 4:Filename ../../test-files/testfile_rand_16KB'
p1250
aaa(lp1251
S'Timestamp'
p1252
a(lp1253
I1347569664
aaa(lp1254
S'Block size'
p1255
a(lp1256
I4096
aaa(lp1257
S'PRF key size'
p1258
a(lp1259
I20
aaa(lp1260
S'ENC key size'
p1261
a(lp1262
I32
aaa(lp1263
S'MAC key size'
p1264
a(lp1265
I20
aaa(lp1266
S'lambda'
p1267
a(lp1268
I80
aaa(lp1269
S'Zp bits'
p1270
a(lp1271
I80
aaa(lp1272
S'# challenge blocks'
p1273
a(lp1274
I80
aaa(lp1275
S'# threads'
p1276
a(lp1277
I4
aaa(lp1278
g51
a(lp1279
S'16'
p1280
aaatRp1281
ag2
((lp1282
(lp1283
S'Create tag'
p1284
a(lp1285
F0.00085309999999999997
aF0.00068619999999999998
aF0.00071690000000000002
aF0.00073289999999999998
aF0.00075699999999999997
aF0.0007272
aF0.00071909999999999997
aF0.00075290000000000003
aF0.00071000000000000002
aF0.00072099999999999996
aaa(lp1286
S'Create challenge'
p1287
a(lp1288
F0.0001719
aF0.000113
aF0.000107
aF0.00012400000000000001
aF0.00010900000000000001
aF0.0001049
aF0.0001049
aF0.0001111
aF0.00010399999999999999
aF0.00010399999999999999
aaa(lp1289
S'Create proof'
p1290
a(lp1291
F0.00030899999999999998
aF0.00028610000000000002
aF0.00028200000000000002
aF0.00029990000000000003
aF0.00028899999999999998
aF0.00030899999999999998
aF0.00032620000000000001
aF0.00033399999999999999
aF0.00032309999999999999
aF0.00032000000000000003
aaa(lp1292
S'Verify file'
p1293
a(lp1294
F0.00010509999999999999
aF0.0001049
aF0.00012400000000000001
aF0.00010509999999999999
aF0.00010399999999999999
aF0.0001049
aF0.00010509999999999999
aF0.0001121
aF0.00010399999999999999
aF0.00010399999999999999
aaa(lp1295
S'HEAD'
p1296
a(lp1297
I0
aaa(lp1298
S'GET'
p1299
a(lp1300
I0
aaa(lp1301
S'PUT'
p1302
a(lp1303
I0
aaa(lp1304
S'COPY'
p1305
a(lp1306
I0
aaa(lp1307
S'LIST'
p1308
a(lp1309
I0
aaa(lp1310
S'POST'
p1311
a(lp1312
I0
aaa(lp1313
S'Metadata'
p1314
a(lp1315
S'CPOR:Block size 4096:PRF key size 20:ENC key size 32:MAC key size 20:lambda 80:Zp bits 80:# challenge blocks 80:# threads 4:Filename ../../test-files/testfile_rand_32KB'
p1316
aaa(lp1317
S'Timestamp'
p1318
a(lp1319
I1347569666
aaa(lp1320
S'Block size'
p1321
a(lp1322
I4096
aaa(lp1323
S'PRF key size'
p1324
a(lp1325
I20
aaa(lp1326
S'ENC key size'
p1327
a(lp1328
I32
aaa(lp1329
S'MAC key size'
p1330
a(lp1331
I20
aaa(lp1332
S'lambda'
p1333
a(lp1334
I80
aaa(lp1335
S'Zp bits'
p1336
a(lp1337
I80
aaa(lp1338
S'# challenge blocks'
p1339
a(lp1340
I80
aaa(lp1341
S'# threads'
p1342
a(lp1343
I4
aaa(lp1344
g51
a(lp1345
S'32'
p1346
aaatRp1347
ag2
((lp1348
(lp1349
S'Create tag'
p1350
a(lp1351
F0.0012731999999999999
aF0.001049
aF0.0012700999999999999
aF0.0011119999999999999
aF0.001049
aF0.001075
aF0.0011148
aF0.0010759999999999999
aF0.0010660000000000001
aF0.0010981999999999999
aaa(lp1352
S'Create challenge'
p1353
a(lp1354
F0.00018000000000000001
aF0.00014310000000000001
aF0.0001259
aF0.0001261
aF0.0001271
aF0.00013180000000000001
aF0.0001271
aF0.00012300000000000001
aF0.00012300000000000001
aF0.000145
aaa(lp1355
S'Create proof'
p1356
a(lp1357
F0.00058909999999999995
aF0.0005798
aF0.00058699999999999996
aF0.00060800000000000003
aF0.00058889999999999995
aF0.000602
aF0.00061200000000000002
aF0.00060300000000000002
aF0.00059599999999999996
aF0.00061799999999999995
aaa(lp1358
S'Verify file'
p1359
a(lp1360
F0.00012799999999999999
aF0.00012400000000000001
aF0.00012210000000000001
aF0.00012799999999999999
aF0.0001211
aF0.0001209
aF0.0001211
aF0.0001359
aF0.00013520000000000001
aF0.00012180000000000001
aaa(lp1361
S'HEAD'
p1362
a(lp1363
I0
aaa(lp1364
S'GET'
p1365
a(lp1366
I0
aaa(lp1367
S'PUT'
p1368
a(lp1369
I0
aaa(lp1370
S'COPY'
p1371
a(lp1372
I0
aaa(lp1373
S'LIST'
p1374
a(lp1375
I0
aaa(lp1376
S'POST'
p1377
a(lp1378
I0
aaa(lp1379
S'Metadata'
p1380
a(lp1381
S'CPOR:Block size 4096:PRF key size 20:ENC key size 32:MAC key size 20:lambda 80:Zp bits 80:# challenge blocks 80:# threads 4:Filename ../../test-files/testfile_rand_64KB'
p1382
aaa(lp1383
S'Timestamp'
p1384
a(lp1385
I1347569669
aaa(lp1386
S'Block size'
p1387
a(lp1388
I4096
aaa(lp1389
S'PRF key size'
p1390
a(lp1391
I20
aaa(lp1392
S'ENC key size'
p1393
a(lp1394
I32
aaa(lp1395
S'MAC key size'
p1396
a(lp1397
I20
aaa(lp1398
S'lambda'
p1399
a(lp1400
I80
aaa(lp1401
S'Zp bits'
p1402
a(lp1403
I80
aaa(lp1404
S'# challenge blocks'
p1405
a(lp1406
I80
aaa(lp1407
S'# threads'
p1408
a(lp1409
I4
aaa(lp1410
g51
a(lp1411
S'64'
p1412
aaatRp1413
ag2
((lp1414
(lp1415
S'Create tag'
p1416
a(lp1417
F0.0019851000000000001
aF0.001709
aF0.0016921
aF0.0017109
aF0.0017750000000000001
aF0.001755
aF0.0016930000000000001
aF0.0017049000000000001
aF0.0017331
aF0.0016980000000000001
aaa(lp1418
S'Create challenge'
p1419
a(lp1420
F0.00032000000000000003
aF0.00016589999999999999
aF0.00016809999999999999
aF0.00017310000000000001
aF0.00016090000000000001
aF0.00016689999999999999
aF0.0001771
aF0.00017909999999999999
aF0.0001729
aF0.00018100000000000001
aaa(lp1421
S'Create proof'
p1422
a(lp1423
F0.0011950000000000001
aF0.0012011999999999999
aF0.0011479999999999999
aF0.0011479999999999999
aF0.0011479999999999999
aF0.0012109
aF0.0011861
aF0.0012059
aF0.0011699
aF0.001147
aaa(lp1424
S'Verify file'
p1425
a(lp1426
F0.0001838
aF0.0001571
aF0.00015589999999999999
aF0.00016310000000000001
aF0.000155
aF0.000155
aF0.00017310000000000001
aF0.00015589999999999999
aF0.0001562
aF0.0001628
aaa(lp1427
S'HEAD'
p1428
a(lp1429
I0
aaa(lp1430
S'GET'
p1431
a(lp1432
I0
aaa(lp1433
S'PUT'
p1434
a(lp1435
I0
aaa(lp1436
S'COPY'
p1437
a(lp1438
I0
aaa(lp1439
S'LIST'
p1440
a(lp1441
I0
aaa(lp1442
S'POST'
p1443
a(lp1444
I0
aaa(lp1445
S'Metadata'
p1446
a(lp1447
S'CPOR:Block size 4096:PRF key size 20:ENC key size 32:MAC key size 20:lambda 80:Zp bits 80:# challenge blocks 80:# threads 4:Filename ../../test-files/testfile_rand_128KB'
p1448
aaa(lp1449
S'Timestamp'
p1450
a(lp1451
I1347569671
aaa(lp1452
S'Block size'
p1453
a(lp1454
I4096
aaa(lp1455
S'PRF key size'
p1456
a(lp1457
I20
aaa(lp1458
S'ENC key size'
p1459
a(lp1460
I32
aaa(lp1461
S'MAC key size'
p1462
a(lp1463
I20
aaa(lp1464
S'lambda'
p1465
a(lp1466
I80
aaa(lp1467
S'Zp bits'
p1468
a(lp1469
I80
aaa(lp1470
S'# challenge blocks'
p1471
a(lp1472
I80
aaa(lp1473
S'# threads'
p1474
a(lp1475
I4
aaa(lp1476
g51
a(lp1477
S'128'
p1478
aaatRp1479
ag2
((lp1480
(lp1481
S'Create tag'
p1482
a(lp1483
F0.0032880000000000001
aF0.0028750999999999998
aF0.00296
aF0.0029139999999999999
aF0.0029150999999999999
aF0.0029569000000000002
aF0.0029378
aF0.002934
aF0.0029721000000000001
aF0.0029390000000000002
aaa(lp1484
S'Create challenge'
p1485
a(lp1486
F0.0003121
aF0.00023389999999999999
aF0.00026699999999999998
aF0.00023580000000000001
aF0.00023220000000000001
aF0.00023790000000000001
aF0.00023890000000000001
aF0.00025109999999999998
aF0.00023699999999999999
aF0.000241
aaa(lp1487
S'Create proof'
p1488
a(lp1489
F0.0023232000000000001
aF0.0023370000000000001
aF0.0022709000000000002
aF0.0022179999999999999
aF0.0023200999999999999
aF0.0023278999999999999
aF0.0023509999999999998
aF0.0023121999999999999
aF0.0022471000000000001
aF0.0022490000000000001
aaa(lp1490
S'Verify file'
p1491
a(lp1492
F0.00030679999999999998
aF0.000231
aF0.00022010000000000001
aF0.00024010000000000001
aF0.00021890000000000001
aF0.0002298
aF0.00022010000000000001
aF0.00023890000000000001
aF0.00022010000000000001
aF0.000231
aaa(lp1493
S'HEAD'
p1494
a(lp1495
I0
aaa(lp1496
S'GET'
p1497
a(lp1498
I0
aaa(lp1499
S'PUT'
p1500
a(lp1501
I0
aaa(lp1502
S'COPY'
p1503
a(lp1504
I0
aaa(lp1505
S'LIST'
p1506
a(lp1507
I0
aaa(lp1508
S'POST'
p1509
a(lp1510
I0
aaa(lp1511
S'Metadata'
p1512
a(lp1513
S'CPOR:Block size 4096:PRF key size 20:ENC key size 32:MAC key size 20:lambda 80:Zp bits 80:# challenge blocks 80:# threads 4:Filename ../../test-files/testfile_rand_256KB'
p1514
aaa(lp1515
S'Timestamp'
p1516
a(lp1517
I1347569674
aaa(lp1518
S'Block size'
p1519
a(lp1520
I4096
aaa(lp1521
S'PRF key size'
p1522
a(lp1523
I20
aaa(lp1524
S'ENC key size'
p1525
a(lp1526
I32
aaa(lp1527
S'MAC key size'
p1528
a(lp1529
I20
aaa(lp1530
S'lambda'
p1531
a(lp1532
I80
aaa(lp1533
S'Zp bits'
p1534
a(lp1535
I80
aaa(lp1536
S'# challenge blocks'
p1537
a(lp1538
I80
aaa(lp1539
S'# threads'
p1540
a(lp1541
I4
aaa(lp1542
g51
a(lp1543
S'256'
p1544
aaatRp1545
ag2
((lp1546
(lp1547
S'Create tag'
p1548
a(lp1549
F0.0063369000000000003
aF0.0053651000000000003
aF0.0054479000000000003
aF0.0054722
aF0.0055107999999999997
aF0.0059880999999999997
aF0.0057371000000000002
aF0.00596
aF0.0062132000000000003
aF0.021981000000000001
aaa(lp1550
S'Create challenge'
p1551
a(lp1552
F0.00033189999999999999
aF0.00028610000000000002
aF0.00027680000000000001
aF0.0002742
aF0.00030590000000000001
aF0.00026699999999999998
aF0.00028610000000000002
aF0.00027490000000000001
aF0.00028709999999999999
aF0.00028899999999999998
aaa(lp1553
S'Create proof'
p1554
a(lp1555
F0.0029221
aF0.0028389000000000001
aF0.0028701
aF0.0028379
aF0.00298
aF0.0029949999999999998
aF0.0029750000000000002
aF0.0029348999999999998
aF0.0028470000000000001
aF0.0028528999999999998
aaa(lp1556
S'Verify file'
p1557
a(lp1558
F0.00028400000000000002
aF0.00025609999999999999
aF0.000272
aF0.00025700000000000001
aF0.00026489999999999999
aF0.00025609999999999999
aF0.00027109999999999998
aF0.00025510000000000002
aF0.00026489999999999999
aF0.00025510000000000002
aaa(lp1559
S'HEAD'
p1560
a(lp1561
I0
aaa(lp1562
S'GET'
p1563
a(lp1564
I0
aaa(lp1565
S'PUT'
p1566
a(lp1567
I0
aaa(lp1568
S'COPY'
p1569
a(lp1570
I0
aaa(lp1571
S'LIST'
p1572
a(lp1573
I0
aaa(lp1574
S'POST'
p1575
a(lp1576
I0
aaa(lp1577
S'Metadata'
p1578
a(lp1579
S'CPOR:Block size 4096:PRF key size 20:ENC key size 32:MAC key size 20:lambda 80:Zp bits 80:# challenge blocks 80:# threads 4:Filename ../../test-files/testfile_rand_512KB'
p1580
aaa(lp1581
S'Timestamp'
p1582
a(lp1583
I1347569677
aaa(lp1584
S'Block size'
p1585
a(lp1586
I4096
aaa(lp1587
S'PRF key size'
p1588
a(lp1589
I20
aaa(lp1590
S'ENC key size'
p1591
a(lp1592
I32
aaa(lp1593
S'MAC key size'
p1594
a(lp1595
I20
aaa(lp1596
S'lambda'
p1597
a(lp1598
I80
aaa(lp1599
S'Zp bits'
p1600
a(lp1601
I80
aaa(lp1602
S'# challenge blocks'
p1603
a(lp1604
I80
aaa(lp1605
S'# threads'
p1606
a(lp1607
I4
aaa(lp1608
g51
a(lp1609
S'512'
p1610
aaatRp1611
ag2
((lp1612
(lp1613
S'Create tag'
p1614
a(lp1615
F0.011699899999999999
aF0.010544100000000001
aF0.010226000000000001
aF0.010541
aF0.0106032
aF0.0105469
aF0.010782999999999999
aF0.0105641
aF0.0102711
aF0.0107429
aaa(lp1616
S'Create challenge'
p1617
a(lp1618
F0.0003769
aF0.0002611
aF0.00025109999999999998
aF0.00028590000000000001
aF0.00026509999999999999
aF0.00026800000000000001
aF0.00026610000000000002
aF0.00028400000000000002
aF0.00026610000000000002
aF0.00027300000000000002
aaa(lp1619
S'Create proof'
p1620
a(lp1621
F0.0028528999999999998
aF0.0027769000000000001
aF0.0027490000000000001
aF0.002764
aF0.0028509999999999998
aF0.0028660000000000001
aF0.0028528999999999998
aF0.002764
aF0.0027661000000000001
aF0.0027759
aaa(lp1622
S'Verify file'
p1623
a(lp1624
F0.00027799999999999998
aF0.00027510000000000002
aF0.00025609999999999999
aF0.00026800000000000001
aF0.0002699
aF0.00025609999999999999
aF0.000263
aF0.00025510000000000002
aF0.00027080000000000002
aF0.00025490000000000002
aaa(lp1625
S'HEAD'
p1626
a(lp1627
I0
aaa(lp1628
S'GET'
p1629
a(lp1630
I0
aaa(lp1631
S'PUT'
p1632
a(lp1633
I0
aaa(lp1634
S'COPY'
p1635
a(lp1636
I0
aaa(lp1637
S'LIST'
p1638
a(lp1639
I0
aaa(lp1640
S'POST'
p1641
a(lp1642
I0
aaa(lp1643
S'Metadata'
p1644
a(lp1645
S'CPOR:Block size 4096:PRF key size 20:ENC key size 32:MAC key size 20:lambda 80:Zp bits 80:# challenge blocks 80:# threads 4:Filename ../../test-files/testfile_rand_1024KB'
p1646
aaa(lp1647
S'Timestamp'
p1648
a(lp1649
I1347569680
aaa(lp1650
S'Block size'
p1651
a(lp1652
I4096
aaa(lp1653
S'PRF key size'
p1654
a(lp1655
I20
aaa(lp1656
S'ENC key size'
p1657
a(lp1658
I32
aaa(lp1659
S'MAC key size'
p1660
a(lp1661
I20
aaa(lp1662
S'lambda'
p1663
a(lp1664
I80
aaa(lp1665
S'Zp bits'
p1666
a(lp1667
I80
aaa(lp1668
S'# challenge blocks'
p1669
a(lp1670
I80
aaa(lp1671
S'# threads'
p1672
a(lp1673
I4
aaa(lp1674
g51
a(lp1675
S'1024'
p1676
aaatRp1677
ag2
((lp1678
(lp1679
S'Create tag'
p1680
a(lp1681
F0.022640899999999999
aF0.019917000000000001
aF0.020259900000000001
aF0.0207291
aF0.021567099999999999
aF0.020513099999999999
aF0.020496799999999999
aF0.020942200000000001
aF0.0205469
aF0.020972000000000001
aaa(lp1682
S'Create challenge'
p1683
a(lp1684
F0.00036600000000000001
aF0.00028709999999999999
aF0.0002611
aF0.00027389999999999999
aF0.00028299999999999999
aF0.00026800000000000001
aF0.00027609999999999999
aF0.00028709999999999999
aF0.00026489999999999999
aF0.00028299999999999999
aaa(lp1685
S'Create proof'
p1686
a(lp1687
F0.0028528999999999998
aF0.0027558999999999999
aF0.0027629999999999998
aF0.0027471000000000001
aF0.002862
aF0.0028419000000000001
aF0.0028178999999999999
aF0.0032569999999999999
aF0.0027859
aF0.002758
aaa(lp1688
S'Verify file'
p1689
a(lp1690
F0.00027300000000000002
aF0.0002789
aF0.00025389999999999999
aF0.00026200000000000003
aF0.00025389999999999999
aF0.00027010000000000001
aF0.00025300000000000002
aF0.000263
aF0.00025300000000000002
aF0.00026699999999999998
aaa(lp1691
S'HEAD'
p1692
a(lp1693
I0
aaa(lp1694
S'GET'
p1695
a(lp1696
I0
aaa(lp1697
S'PUT'
p1698
a(lp1699
I0
aaa(lp1700
S'COPY'
p1701
a(lp1702
I0
aaa(lp1703
S'LIST'
p1704
a(lp1705
I0
aaa(lp1706
S'POST'
p1707
a(lp1708
I0
aaa(lp1709
S'Metadata'
p1710
a(lp1711
S'CPOR:Block size 4096:PRF key size 20:ENC key size 32:MAC key size 20:lambda 80:Zp bits 80:# challenge blocks 80:# threads 4:Filename ../../test-files/testfile_rand_2048KB'
p1712
aaa(lp1713
S'Timestamp'
p1714
a(lp1715
I1347569685
aaa(lp1716
S'Block size'
p1717
a(lp1718
I4096
aaa(lp1719
S'PRF key size'
p1720
a(lp1721
I20
aaa(lp1722
S'ENC key size'
p1723
a(lp1724
I32
aaa(lp1725
S'MAC key size'
p1726
a(lp1727
I20
aaa(lp1728
S'lambda'
p1729
a(lp1730
I80
aaa(lp1731
S'Zp bits'
p1732
a(lp1733
I80
aaa(lp1734
S'# challenge blocks'
p1735
a(lp1736
I80
aaa(lp1737
S'# threads'
p1738
a(lp1739
I4
aaa(lp1740
g51
a(lp1741
S'2048'
p1742
aaatRp1743
ag2
((lp1744
(lp1745
S'Create tag'
p1746
a(lp1747
F0.0434451
aF0.040347800000000003
aF0.039712900000000002
aF0.038968999999999997
aF0.038828099999999997
aF0.038836000000000002
aF0.038965899999999998
aF0.038884200000000001
aF0.0389199
aF0.0388861
aaa(lp1748
S'Create challenge'
p1749
a(lp1750
F0.00041790000000000002
aF0.000299
aF0.00027609999999999999
aF0.00029990000000000003
aF0.00029609999999999999
aF0.00029179999999999999
aF0.00030299999999999999
aF0.00030489999999999998
aF0.00029710000000000001
aF0.00030590000000000001
aaa(lp1751
S'Create proof'
p1752
a(lp1753
F0.0027320000000000001
aF0.0026681000000000001
aF0.0026519
aF0.0026497999999999999
aF0.0027590000000000002
aF0.0027349000000000002
aF0.0027401000000000001
aF0.0026619
aF0.0026540999999999999
aF0.0027709000000000002
aaa(lp1754
S'Verify file'
p1755
a(lp1756
F0.0002921
aF0.00025510000000000002
aF0.00026889999999999998
aF0.00025300000000000002
aF0.00025989999999999997
aF0.00025389999999999999
aF0.00026800000000000001
aF0.00025300000000000002
aF0.00025989999999999997
aF0.00025300000000000002
aaa(lp1757
S'HEAD'
p1758
a(lp1759
I0
aaa(lp1760
S'GET'
p1761
a(lp1762
I0
aaa(lp1763
S'PUT'
p1764
a(lp1765
I0
aaa(lp1766
S'COPY'
p1767
a(lp1768
I0
aaa(lp1769
S'LIST'
p1770
a(lp1771
I0
aaa(lp1772
S'POST'
p1773
a(lp1774
I0
aaa(lp1775
S'Metadata'
p1776
a(lp1777
S'CPOR:Block size 4096:PRF key size 20:ENC key size 32:MAC key size 20:lambda 80:Zp bits 80:# challenge blocks 80:# threads 4:Filename ../../test-files/testfile_rand_4096KB'
p1778
aaa(lp1779
S'Timestamp'
p1780
a(lp1781
I1347569693
aaa(lp1782
S'Block size'
p1783
a(lp1784
I4096
aaa(lp1785
S'PRF key size'
p1786
a(lp1787
I20
aaa(lp1788
S'ENC key size'
p1789
a(lp1790
I32
aaa(lp1791
S'MAC key size'
p1792
a(lp1793
I20
aaa(lp1794
S'lambda'
p1795
a(lp1796
I80
aaa(lp1797
S'Zp bits'
p1798
a(lp1799
I80
aaa(lp1800
S'# challenge blocks'
p1801
a(lp1802
I80
aaa(lp1803
S'# threads'
p1804
a(lp1805
I4
aaa(lp1806
g51
a(lp1807
S'4096'
p1808
aaatRp1809
ag2
((lp1810
(lp1811
S'Create tag'
p1812
a(lp1813
F0.091736799999999993
aF0.082924800000000007
aF0.083594799999999997
aF0.083467
aF0.083312999999999998
aF0.083249100000000006
aF0.086100800000000005
aF0.090559000000000001
aF0.082891000000000006
aF0.083006099999999999
aaa(lp1814
S'Create challenge'
p1815
a(lp1816
F0.00076099999999999996
aF0.00029399999999999999
aF0.000299
aF0.00029490000000000001
aF0.00029710000000000001
aF0.00031399999999999999
aF0.00030709999999999998
aF0.00031589999999999998
aF0.00033619999999999999
aF0.0002968
aaa(lp1817
S'Create proof'
p1818
a(lp1819
F0.0029708999999999998
aF0.0028969999999999998
aF0.002872
aF0.0028831999999999998
aF0.0029930999999999998
aF0.0029819
aF0.0029531000000000002
aF0.0029448999999999999
aF0.0029329999999999998
aF0.0029229999999999998
aaa(lp1820
S'Verify file'
p1821
a(lp1822
F0.0002942
aF0.00025579999999999998
aF0.00027109999999999998
aF0.00026390000000000002
aF0.00025510000000000002
aF0.00027300000000000002
aF0.00025300000000000002
aF0.00026420000000000003
aF0.00025579999999999998
aF0.00027920000000000001
aaa(lp1823
S'HEAD'
p1824
a(lp1825
I0
aaa(lp1826
S'GET'
p1827
a(lp1828
I0
aaa(lp1829
S'PUT'
p1830
a(lp1831
I0
aaa(lp1832
S'COPY'
p1833
a(lp1834
I0
aaa(lp1835
S'LIST'
p1836
a(lp1837
I0
aaa(lp1838
S'POST'
p1839
a(lp1840
I0
aaa(lp1841
S'Metadata'
p1842
a(lp1843
S'CPOR:Block size 4096:PRF key size 20:ENC key size 32:MAC key size 20:lambda 80:Zp bits 80:# challenge blocks 80:# threads 4:Filename ../../test-files/testfile_rand_8192KB'
p1844
aaa(lp1845
S'Timestamp'
p1846
a(lp1847
I1347569705
aaa(lp1848
S'Block size'
p1849
a(lp1850
I4096
aaa(lp1851
S'PRF key size'
p1852
a(lp1853
I20
aaa(lp1854
S'ENC key size'
p1855
a(lp1856
I32
aaa(lp1857
S'MAC key size'
p1858
a(lp1859
I20
aaa(lp1860
S'lambda'
p1861
a(lp1862
I80
aaa(lp1863
S'Zp bits'
p1864
a(lp1865
I80
aaa(lp1866
S'# challenge blocks'
p1867
a(lp1868
I80
aaa(lp1869
S'# threads'
p1870
a(lp1871
I4
aaa(lp1872
g51
a(lp1873
S'8192'
p1874
aaatRp1875
ag2
((lp1876
(lp1877
S'Create tag'
p1878
a(lp1879
F0.17578099999999999
aF0.15335199999999999
aF0.153918
aF0.1545019
aF0.154922
aF0.157337
aF0.15621399999999999
aF0.16334199999999999
aF0.1560831
aF0.1713469
aaa(lp1880
S'Create challenge'
p1881
a(lp1882
F0.00032000000000000003
aF0.00025680000000000001
aF0.00025609999999999999
aF0.00026610000000000002
aF0.00031110000000000003
aF0.00025179999999999999
aF0.0002789
aF0.0002899
aF0.00029520000000000002
aF0.0002699
aaa(lp1883
S'Create proof'
p1884
a(lp1885
F0.0027989999999999998
aF0.0026538
aF0.0026710000000000002
aF0.0026838999999999999
aF0.0027439999999999999
aF0.0028739
aF0.0027529999999999998
aF0.0027288999999999998
aF0.0026841
aF0.0026568999999999998
aaa(lp1886
S'Verify file'
p1887
a(lp1888
F0.00028299999999999999
aF0.00027300000000000002
aF0.00025490000000000002
aF0.00026420000000000003
aF0.00025579999999999998
aF0.0002699
aF0.00025389999999999999
aF0.000263
aF0.00025389999999999999
aF0.00027109999999999998
aaa(lp1889
S'HEAD'
p1890
a(lp1891
I0
aaa(lp1892
S'GET'
p1893
a(lp1894
I0
aaa(lp1895
S'PUT'
p1896
a(lp1897
I0
aaa(lp1898
S'COPY'
p1899
a(lp1900
I0
aaa(lp1901
S'LIST'
p1902
a(lp1903
I0
aaa(lp1904
S'POST'
p1905
a(lp1906
I0
aaa(lp1907
S'Metadata'
p1908
a(lp1909
S'CPOR:Block size 4096:PRF key size 20:ENC key size 32:MAC key size 20:lambda 80:Zp bits 80:# challenge blocks 80:# threads 4:Filename ../../test-files/testfile_rand_16384KB'
p1910
aaa(lp1911
S'Timestamp'
p1912
a(lp1913
I1347569727
aaa(lp1914
S'Block size'
p1915
a(lp1916
I4096
aaa(lp1917
S'PRF key size'
p1918
a(lp1919
I20
aaa(lp1920
S'ENC key size'
p1921
a(lp1922
I32
aaa(lp1923
S'MAC key size'
p1924
a(lp1925
I20
aaa(lp1926
S'lambda'
p1927
a(lp1928
I80
aaa(lp1929
S'Zp bits'
p1930
a(lp1931
I80
aaa(lp1932
S'# challenge blocks'
p1933
a(lp1934
I80
aaa(lp1935
S'# threads'
p1936
a(lp1937
I4
aaa(lp1938
g51
a(lp1939
S'16384'
p1940
aaatRp1941
ag2
((lp1942
(lp1943
S'Create tag'
p1944
a(lp1945
F0.35416389999999998
aF0.32322099999999998
aF0.31511499999999998
aF0.31431100000000001
aF0.3143339
aF0.3154151
aF0.32393690000000003
aF0.3264551
aF0.33824589999999999
aF0.315882
aaa(lp1946
S'Create challenge'
p1947
a(lp1948
F0.00036309999999999999
aF0.00036499999999999998
aF0.0003099
aF0.00027700000000000001
aF0.00030210000000000002
aF0.00032590000000000001
aF0.0003302
aF0.000319
aF0.00031399999999999999
aF0.00029490000000000001
aaa(lp1949
S'Create proof'
p1950
a(lp1951
F0.0028019
aF0.0027439999999999999
aF0.0027249000000000002
aF0.0027349000000000002
aF0.0028590999999999998
aF0.0028081
aF0.0027789999999999998
aF0.0027430000000000002
aF0.0027150999999999998
aF0.0027030000000000001
aaa(lp1952
S'Verify file'
p1953
a(lp1954
F0.00031110000000000003
aF0.000272
aF0.00026390000000000002
aF0.00028009999999999998
aF0.00026489999999999999
aF0.00027109999999999998
aF0.00026610000000000002
aF0.00027700000000000001
aF0.000263
aF0.00027080000000000002
aaa(lp1955
S'HEAD'
p1956
a(lp1957
I0
aaa(lp1958
S'GET'
p1959
a(lp1960
I0
aaa(lp1961
S'PUT'
p1962
a(lp1963
I0
aaa(lp1964
S'COPY'
p1965
a(lp1966
I0
aaa(lp1967
S'LIST'
p1968
a(lp1969
I0
aaa(lp1970
S'POST'
p1971
a(lp1972
I0
aaa(lp1973
S'Metadata'
p1974
a(lp1975
S'CPOR:Block size 4096:PRF key size 20:ENC key size 32:MAC key size 20:lambda 80:Zp bits 80:# challenge blocks 80:# threads 4:Filename ../../test-files/testfile_rand_32768KB'
p1976
aaa(lp1977
S'Timestamp'
p1978
a(lp1979
I1347569768
aaa(lp1980
S'Block size'
p1981
a(lp1982
I4096
aaa(lp1983
S'PRF key size'
p1984
a(lp1985
I20
aaa(lp1986
S'ENC key size'
p1987
a(lp1988
I32
aaa(lp1989
S'MAC key size'
p1990
a(lp1991
I20
aaa(lp1992
S'lambda'
p1993
a(lp1994
I80
aaa(lp1995
S'Zp bits'
p1996
a(lp1997
I80
aaa(lp1998
S'# challenge blocks'
p1999
a(lp2000
I80
aaa(lp2001
S'# threads'
p2002
a(lp2003
I4
aaa(lp2004
g51
a(lp2005
S'32768'
p2006
aaatRp2007
ag2
((lp2008
(lp2009
S'Create tag'
p2010
a(lp2011
F0.71963999999999995
aF0.65117290000000005
aF0.67050719999999997
aF0.67927599999999999
aF0.68555900000000003
aF0.68588499999999997
aF0.68640900000000005
aF0.659219
aF0.65748600000000001
aF0.65473510000000001
aaa(lp2012
S'Create challenge'
p2013
a(lp2014
F0.00032899999999999997
aF0.0002608
aF0.00027300000000000002
aF0.00027510000000000002
aF0.00027799999999999998
aF0.00027490000000000001
aF0.0002789
aF0.00027510000000000002
aF0.0002789
aF0.00025799999999999998
aaa(lp2015
S'Create proof'
p2016
a(lp2017
F0.00296
aF0.0028651000000000002
aF0.0028268999999999998
aF0.0028219
aF0.002928
aF0.0029310999999999999
aF0.002928
aF0.0028238
aF0.0028310000000000002
aF0.0028291000000000002
aaa(lp2018
S'Verify file'
p2019
a(lp2020
F0.00031780000000000003
aF0.00025799999999999998
aF0.00026800000000000001
aF0.00027700000000000001
aF0.00025680000000000001
aF0.00026509999999999999
aF0.0002589
aF0.000272
aF0.00025700000000000001
aF0.00026800000000000001
aaa(lp2021
S'HEAD'
p2022
a(lp2023
I0
aaa(lp2024
S'GET'
p2025
a(lp2026
I0
aaa(lp2027
S'PUT'
p2028
a(lp2029
I0
aaa(lp2030
S'COPY'
p2031
a(lp2032
I0
aaa(lp2033
S'LIST'
p2034
a(lp2035
I0
aaa(lp2036
S'POST'
p2037
a(lp2038
I0
aaa(lp2039
S'Metadata'
p2040
a(lp2041
S'CPOR:Block size 4096:PRF key size 20:ENC key size 32:MAC key size 20:lambda 80:Zp bits 80:# challenge blocks 80:# threads 4:Filename ../../test-files/testfile_rand_65536KB'
p2042
aaa(lp2043
S'Timestamp'
p2044
a(lp2045
I1347569847
aaa(lp2046
S'Block size'
p2047
a(lp2048
I4096
aaa(lp2049
S'PRF key size'
p2050
a(lp2051
I20
aaa(lp2052
S'ENC key size'
p2053
a(lp2054
I32
aaa(lp2055
S'MAC key size'
p2056
a(lp2057
I20
aaa(lp2058
S'lambda'
p2059
a(lp2060
I80
aaa(lp2061
S'Zp bits'
p2062
a(lp2063
I80
aaa(lp2064
S'# challenge blocks'
p2065
a(lp2066
I80
aaa(lp2067
S'# threads'
p2068
a(lp2069
I4
aaa(lp2070
g51
a(lp2071
S'65536'
p2072
aaatRp2073
ag2
((lp2074
(lp2075
S'Create tag'
p2076
a(lp2077
F1.4956071
aF1.2991680999999999
aF1.3358490000000001
aF1.687943
aF1.3125450999999999
aF1.3049170999999999
aF1.2956920000000001
aF1.3340981000000001
aF1.3176410000000001
aF1.3124681
aaa(lp2078
S'Create challenge'
p2079
a(lp2080
F0.00032899999999999997
aF0.0002789
aF0.00029300000000000002
aF0.00029990000000000003
aF0.00032210000000000002
aF0.000339
aF0.0003099
aF0.00028709999999999999
aF0.00031809999999999998
aF0.00029990000000000003
aaa(lp2081
S'Create proof'
p2082
a(lp2083
F0.0029681
aF0.0028609999999999998
aF0.0028811000000000002
aF0.0028779999999999999
aF0.00298
aF0.0029750000000000002
aF0.0029409000000000002
aF0.0028969999999999998
aF0.0029171000000000002
aF0.0028690999999999999
aaa(lp2084
S'Verify file'
p2085
a(lp2086
F0.00030489999999999998
aF0.00027700000000000001
aF0.00025579999999999998
aF0.00026420000000000003
aF0.00025700000000000001
aF0.0002699
aF0.00025510000000000002
aF0.000263
aF0.00025389999999999999
aF0.00027300000000000002
aaa(lp2087
S'HEAD'
p2088
a(lp2089
I0
aaa(lp2090
S'GET'
p2091
a(lp2092
I0
aaa(lp2093
S'PUT'
p2094
a(lp2095
I0
aaa(lp2096
S'COPY'
p2097
a(lp2098
I0
aaa(lp2099
S'LIST'
p2100
a(lp2101
I0
aaa(lp2102
S'POST'
p2103
a(lp2104
I0
aaa(lp2105
S'Metadata'
p2106
a(lp2107
S'CPOR:Block size 4096:PRF key size 20:ENC key size 32:MAC key size 20:lambda 80:Zp bits 80:# challenge blocks 80:# threads 4:Filename ../../test-files/testfile_rand_131072KB'
p2108
aaa(lp2109
S'Timestamp'
p2110
a(lp2111
I1347570001
aaa(lp2112
S'Block size'
p2113
a(lp2114
I4096
aaa(lp2115
S'PRF key size'
p2116
a(lp2117
I20
aaa(lp2118
S'ENC key size'
p2119
a(lp2120
I32
aaa(lp2121
S'MAC key size'
p2122
a(lp2123
I20
aaa(lp2124
S'lambda'
p2125
a(lp2126
I80
aaa(lp2127
S'Zp bits'
p2128
a(lp2129
I80
aaa(lp2130
S'# challenge blocks'
p2131
a(lp2132
I80
aaa(lp2133
S'# threads'
p2134
a(lp2135
I4
aaa(lp2136
g51
a(lp2137
S'131072'
p2138
aaatRp2139
ag2
((lp2140
(lp2141
S'Create tag'
p2142
a(lp2143
F2.7090299
aF2.4266700999999999
aF2.7350929000000002
aF2.5127141000000002
aF2.4832211000000002
aF2.4707018999999999
aF2.5015502000000001
aF2.4766870000000001
aF2.4690520999999999
aF2.472985
aaa(lp2144
S'Create challenge'
p2145
a(lp2146
F0.00074200000000000004
aF0.00029300000000000002
aF0.00029609999999999999
aF0.00030590000000000001
aF0.00028200000000000002
aF0.00029710000000000001
aF0.0002921
aF0.00030899999999999998
aF0.0002921
aF0.00031399999999999999
aaa(lp2147
S'Create proof'
p2148
a(lp2149
F0.0027420999999999999
aF0.0026789000000000001
aF0.0026751000000000001
aF0.0026889000000000001
aF0.0027709000000000002
aF0.002758
aF0.0027609000000000002
aF0.0029020000000000001
aF0.0026450000000000002
aF0.0026629000000000002
aaa(lp2150
S'Verify file'
p2151
a(lp2152
F0.00034620000000000001
aF0.00026200000000000003
aF0.00026699999999999998
aF0.00027799999999999998
aF0.0002611
aF0.00026889999999999998
aF0.000263
aF0.00027609999999999999
aF0.0002608
aF0.000272
aaa(lp2153
S'HEAD'
p2154
a(lp2155
I0
aaa(lp2156
S'GET'
p2157
a(lp2158
I0
aaa(lp2159
S'PUT'
p2160
a(lp2161
I0
aaa(lp2162
S'COPY'
p2163
a(lp2164
I0
aaa(lp2165
S'LIST'
p2166
a(lp2167
I0
aaa(lp2168
S'POST'
p2169
a(lp2170
I0
aaa(lp2171
S'Metadata'
p2172
a(lp2173
S'CPOR:Block size 4096:PRF key size 20:ENC key size 32:MAC key size 20:lambda 80:Zp bits 80:# challenge blocks 80:# threads 4:Filename ../../test-files/testfile_rand_262144KB'
p2174
aaa(lp2175
S'Timestamp'
p2176
a(lp2177
I1347570305
aaa(lp2178
S'Block size'
p2179
a(lp2180
I4096
aaa(lp2181
S'PRF key size'
p2182
a(lp2183
I20
aaa(lp2184
S'ENC key size'
p2185
a(lp2186
I32
aaa(lp2187
S'MAC key size'
p2188
a(lp2189
I20
aaa(lp2190
S'lambda'
p2191
a(lp2192
I80
aaa(lp2193
S'Zp bits'
p2194
a(lp2195
I80
aaa(lp2196
S'# challenge blocks'
p2197
a(lp2198
I80
aaa(lp2199
S'# threads'
p2200
a(lp2201
I4
aaa(lp2202
g51
a(lp2203
S'262144'
p2204
aaatRp2205
ag2
((lp2206
(lp2207
S'Create tag'
p2208
a(lp2209
F5.8512111000000004
aF5.2884881000000004
aF5.3791931000000002
aF5.2807168999999998
aF5.2557720999999997
aF5.2553970999999997
aF5.2068801000000002
aF5.7597158000000004
aF5.5418282000000003
aF5.4770688999999999
aaa(lp2210
S'Create challenge'
p2211
a(lp2212
F0.00084110000000000001
aF0.00031189999999999999
aF0.00033
aF0.00031809999999999998
aF0.000299
aF0.00031300000000000002
aF0.00029300000000000002
aF0.00030210000000000002
aF0.000299
aF0.00033399999999999999
aaa(lp2213
S'Create proof'
p2214
a(lp2215
F0.0031629000000000002
aF0.0028410000000000002
aF0.0028509999999999998
aF0.0031511999999999998
aF0.0029711999999999998
aF0.0029670999999999999
aF0.0028999
aF0.00298
aF0.002892
aF0.0028601
aaa(lp2216
S'Verify file'
p2217
a(lp2218
F0.00042890000000000002
aF0.0002811
aF0.00025700000000000001
aF0.000263
aF0.00025700000000000001
aF0.00026889999999999998
aF0.00025389999999999999
aF0.00026200000000000003
aF0.00025510000000000002
aF0.000272
aaa(lp2219
S'HEAD'
p2220
a(lp2221
I0
aaa(lp2222
S'GET'
p2223
a(lp2224
I0
aaa(lp2225
S'PUT'
p2226
a(lp2227
I0
aaa(lp2228
S'COPY'
p2229
a(lp2230
I0
aaa(lp2231
S'LIST'
p2232
a(lp2233
I0
aaa(lp2234
S'POST'
p2235
a(lp2236
I0
aaa(lp2237
S'Metadata'
p2238
a(lp2239
S'CPOR:Block size 4096:PRF key size 20:ENC key size 32:MAC key size 20:lambda 80:Zp bits 80:# challenge blocks 80:# threads 4:Filename ../../test-files/testfile_rand_524288KB'
p2240
aaa(lp2241
S'Timestamp'
p2242
a(lp2243
I1347570912
aaa(lp2244
S'Block size'
p2245
a(lp2246
I4096
aaa(lp2247
S'PRF key size'
p2248
a(lp2249
I20
aaa(lp2250
S'ENC key size'
p2251
a(lp2252
I32
aaa(lp2253
S'MAC key size'
p2254
a(lp2255
I20
aaa(lp2256
S'lambda'
p2257
a(lp2258
I80
aaa(lp2259
S'Zp bits'
p2260
a(lp2261
I80
aaa(lp2262
S'# challenge blocks'
p2263
a(lp2264
I80
aaa(lp2265
S'# threads'
p2266
a(lp2267
I4
aaa(lp2268
g51
a(lp2269
S'524288'
p2270
aaatRp2271
ag2
((lp2272
(lp2273
S'Create tag'
p2274
a(lp2275
F11.394465
aF11.0894599
aF10.669698
aF10.802061999999999
aF10.615750999999999
aF10.828432100000001
aF10.6461699
aF10.55564
aF10.80531
aF11.117843199999999
aaa(lp2276
S'Create challenge'
p2277
a(lp2278
F0.00064210000000000005
aF0.00030800000000000001
aF0.00029589999999999998
aF0.00027609999999999999
aF0.00031500000000000001
aF0.00029399999999999999
aF0.00030899999999999998
aF0.0003011
aF0.00031300000000000002
aF0.00030279999999999999
aaa(lp2279
S'Create proof'
p2280
a(lp2281
F0.0028689000000000002
aF0.0028089999999999999
aF0.0028178999999999999
aF0.0028050000000000002
aF0.0029031999999999999
aF0.0029099
aF0.0031949999999999999
aF0.0028310000000000002
aF0.0028291000000000002
aF0.0028300000000000001
aaa(lp2282
S'Verify file'
p2283
a(lp2284
F0.00046490000000000002
aF0.00025609999999999999
aF0.000263
aF0.00025389999999999999
aF0.00026800000000000001
aF0.00025389999999999999
aF0.0002611
aF0.00025579999999999998
aF0.00027609999999999999
aF0.00025389999999999999
aaa(lp2285
S'HEAD'
p2286
a(lp2287
I0
aaa(lp2288
S'GET'
p2289
a(lp2290
I0
aaa(lp2291
S'PUT'
p2292
a(lp2293
I0
aaa(lp2294
S'COPY'
p2295
a(lp2296
I0
aaa(lp2297
S'LIST'
p2298
a(lp2299
I0
aaa(lp2300
S'POST'
p2301
a(lp2302
I0
aaa(lp2303
S'Metadata'
p2304
a(lp2305
S'CPOR:Block size 4096:PRF key size 20:ENC key size 32:MAC key size 20:lambda 80:Zp bits 80:# challenge blocks 80:# threads 4:Filename ../../test-files/testfile_rand_1048576KB'
p2306
aaa(lp2307
S'Timestamp'
p2308
a(lp2309
I1347572127
aaa(lp2310
S'Block size'
p2311
a(lp2312
I4096
aaa(lp2313
S'PRF key size'
p2314
a(lp2315
I20
aaa(lp2316
S'ENC key size'
p2317
a(lp2318
I32
aaa(lp2319
S'MAC key size'
p2320
a(lp2321
I20
aaa(lp2322
S'lambda'
p2323
a(lp2324
I80
aaa(lp2325
S'Zp bits'
p2326
a(lp2327
I80
aaa(lp2328
S'# challenge blocks'
p2329
a(lp2330
I80
aaa(lp2331
S'# threads'
p2332
a(lp2333
I4
aaa(lp2334
g51
a(lp2335
S'1048576'
p2336
aaatRp2337
ag2
((lp2338
(lp2339
S'Get key'
p2340
a(lp2341
F6.0000000000000002e-06
aaa(lp2342
S'Create tag'
p2343
a(lp2344
F0.00069399999999999996
aF0.0003121
aF0.0010158999999999999
aF0.00057700000000000004
aF0.00043110000000000002
aF0.00043800000000000002
aF0.00048109999999999998
aF0.00031300000000000002
aF0.00044490000000000003
aF0.00045990000000000001
aaa(lp2345
S'Create challenge'
p2346
a(lp2347
F5.0000000000000004e-06
aF1.9e-06
aF3.1e-06
aF2.9000000000000002e-06
aF3.1e-06
aF3.1e-06
aF2.9000000000000002e-06
aF3.1e-06
aF2.9000000000000002e-06
aF2.0999999999999998e-06
aaa(lp2348
S'Create proof'
p2349
a(lp2350
F1.1e-05
aF1.0000000000000001e-05
aF9.7999999999999993e-06
aF9.0999999999999993e-06
aF1.1e-05
aF1.0000000000000001e-05
aF1.0000000000000001e-05
aF9.0999999999999993e-06
aF1.0000000000000001e-05
aF1.0000000000000001e-05
aaa(lp2351
S'Verify file'
p2352
a(lp2353
F9.2999999999999997e-05
aF7.7999999999999999e-05
aF9.9199999999999999e-05
aF6.9900000000000005e-05
aF6.9099999999999999e-05
aF6.8899999999999994e-05
aF6.8899999999999994e-05
aF6.9099999999999999e-05
aF6.8899999999999994e-05
aF6.9099999999999999e-05
aaa(lp2354
S'HEAD'
p2355
a(lp2356
I0
aaa(lp2357
S'GET'
p2358
a(lp2359
I0
aaa(lp2360
S'PUT'
p2361
a(lp2362
I0
aaa(lp2363
S'COPY'
p2364
a(lp2365
I0
aaa(lp2366
S'LIST'
p2367
a(lp2368
I0
aaa(lp2369
S'POST'
p2370
a(lp2371
I0
aaa(lp2372
S'Metadata'
p2373
a(lp2374
S'SEPDP:Block size 4096:PRF key size 20:PRP key size 16:AE key size 16:years 1:minutes 1312:# challenge blocks 512:# threads 4:Filename ../../test-files/testfile_rand_2KB'
p2375
aaa(lp2376
S'Timestamp'
p2377
a(lp2378
I1347569658
aaa(lp2379
S'Block size'
p2380
a(lp2381
I4096
aaa(lp2382
S'PRF key size'
p2383
a(lp2384
I20
aaa(lp2385
S'PRP key size'
p2386
a(lp2387
I16
aaa(lp2388
S'AE key size'
p2389
a(lp2390
I16
aaa(lp2391
S'years'
p2392
a(lp2393
I1
aaa(lp2394
S'minutes'
p2395
a(lp2396
I1312
aaa(lp2397
S'# challenge blocks'
p2398
a(lp2399
I512
aaa(lp2400
S'# threads'
p2401
a(lp2402
I4
aaa(lp2403
g51
a(lp2404
S'2'
aaatRp2405
ag2
((lp2406
(lp2407
S'Get key'
p2408
a(lp2409
F6.0000000000000002e-06
aaa(lp2410
S'Create tag'
p2411
a(lp2412
F0.00064019999999999995
aF0.00033
aF0.00094799999999999995
aF0.0005641
aF0.00045199999999999998
aF0.00035879999999999999
aF0.00043199999999999998
aF0.00038719999999999998
aF0.00043800000000000002
aF0.00043199999999999998
aaa(lp2413
S'Create challenge'
p2414
a(lp2415
F5.0000000000000004e-06
aF2.9000000000000002e-06
aF3.1e-06
aF1.9e-06
aF2.0999999999999998e-06
aF2.9000000000000002e-06
aF3.1e-06
aF3.1e-06
aF2.9000000000000002e-06
aF3.1e-06
aaa(lp2416
S'Create proof'
p2417
a(lp2418
F1.0000000000000001e-05
aF1.0000000000000001e-05
aF1.0000000000000001e-05
aF1.0000000000000001e-05
aF1.0000000000000001e-05
aF1.0000000000000001e-05
aF9.7999999999999993e-06
aF1.0000000000000001e-05
aF1.0000000000000001e-05
aF1.0000000000000001e-05
aaa(lp2419
S'Verify file'
p2420
a(lp2421
F9.1100000000000005e-05
aF7.7999999999999999e-05
aF0.000108
aF7.2000000000000002e-05
aF6.8899999999999994e-05
aF7.0099999999999996e-05
aF6.8899999999999994e-05
aF7.0099999999999996e-05
aF6.8899999999999994e-05
aF8.92e-05
aaa(lp2422
S'HEAD'
p2423
a(lp2424
I0
aaa(lp2425
S'GET'
p2426
a(lp2427
I0
aaa(lp2428
S'PUT'
p2429
a(lp2430
I0
aaa(lp2431
S'COPY'
p2432
a(lp2433
I0
aaa(lp2434
S'LIST'
p2435
a(lp2436
I0
aaa(lp2437
S'POST'
p2438
a(lp2439
I0
aaa(lp2440
S'Metadata'
p2441
a(lp2442
S'SEPDP:Block size 4096:PRF key size 20:PRP key size 16:AE key size 16:years 1:minutes 1312:# challenge blocks 512:# threads 4:Filename ../../test-files/testfile_rand_4KB'
p2443
aaa(lp2444
S'Timestamp'
p2445
a(lp2446
I1347569660
aaa(lp2447
S'Block size'
p2448
a(lp2449
I4096
aaa(lp2450
S'PRF key size'
p2451
a(lp2452
I20
aaa(lp2453
S'PRP key size'
p2454
a(lp2455
I16
aaa(lp2456
S'AE key size'
p2457
a(lp2458
I16
aaa(lp2459
S'years'
p2460
a(lp2461
I1
aaa(lp2462
S'minutes'
p2463
a(lp2464
I1312
aaa(lp2465
S'# challenge blocks'
p2466
a(lp2467
I512
aaa(lp2468
S'# threads'
p2469
a(lp2470
I4
aaa(lp2471
g51
a(lp2472
S'4'
aaatRp2473
ag2
((lp2474
(lp2475
S'Get key'
p2476
a(lp2477
F1.5e-05
aaa(lp2478
S'Create tag'
p2479
a(lp2480
F0.001817
aF0.00023599999999999999
aF0.0079830000000000005
aF0.00052999999999999998
aF0.00053689999999999999
aF0.00053600000000000002
aF0.00053910000000000004
aF0.00053499999999999999
aF0.00061799999999999995
aF0.00056099999999999998
aaa(lp2481
S'Create challenge'
p2482
a(lp2483
F5.0000000000000004e-06
aF3.1e-06
aF2.9000000000000002e-06
aF2.0999999999999998e-06
aF1.9e-06
aF3.1e-06
aF3.1e-06
aF2.9000000000000002e-06
aF3.1e-06
aF2.9000000000000002e-06
aaa(lp2484
S'Create proof'
p2485
a(lp2486
F2.0000000000000002e-05
aF2.0000000000000002e-05
aF2.0000000000000002e-05
aF2.0000000000000002e-05
aF2.0000000000000002e-05
aF2.0000000000000002e-05
aF2.0000000000000002e-05
aF2.0000000000000002e-05
aF2.0000000000000002e-05
aF2.0000000000000002e-05
aaa(lp2487
S'Verify file'
p2488
a(lp2489
F9.5799999999999998e-05
aF7.7000000000000001e-05
aF0.000103
aF7.0099999999999996e-05
aF6.8899999999999994e-05
aF6.9099999999999999e-05
aF8.7000000000000001e-05
aF6.9900000000000005e-05
aF6.9099999999999999e-05
aF6.8899999999999994e-05
aaa(lp2490
S'HEAD'
p2491
a(lp2492
I0
aaa(lp2493
S'GET'
p2494
a(lp2495
I0
aaa(lp2496
S'PUT'
p2497
a(lp2498
I0
aaa(lp2499
S'COPY'
p2500
a(lp2501
I0
aaa(lp2502
S'LIST'
p2503
a(lp2504
I0
aaa(lp2505
S'POST'
p2506
a(lp2507
I0
aaa(lp2508
S'Metadata'
p2509
a(lp2510
S'SEPDP:Block size 4096:PRF key size 20:PRP key size 16:AE key size 16:years 1:minutes 1312:# challenge blocks 512:# threads 4:Filename ../../test-files/testfile_rand_8KB'
p2511
aaa(lp2512
S'Timestamp'
p2513
a(lp2514
I1347569662
aaa(lp2515
S'Block size'
p2516
a(lp2517
I4096
aaa(lp2518
S'PRF key size'
p2519
a(lp2520
I20
aaa(lp2521
S'PRP key size'
p2522
a(lp2523
I16
aaa(lp2524
S'AE key size'
p2525
a(lp2526
I16
aaa(lp2527
S'years'
p2528
a(lp2529
I1
aaa(lp2530
S'minutes'
p2531
a(lp2532
I1312
aaa(lp2533
S'# challenge blocks'
p2534
a(lp2535
I512
aaa(lp2536
S'# threads'
p2537
a(lp2538
I4
aaa(lp2539
g51
a(lp2540
S'8'
aaatRp2541
ag2
((lp2542
(lp2543
S'Get key'
p2544
a(lp2545
F6.0000000000000002e-06
aaa(lp2546
S'Create tag'
p2547
a(lp2548
F0.00069399999999999996
aF0.00039389999999999998
aF0.0013079999999999999
aF0.00060420000000000005
aF0.00048089999999999998
aF0.00047399999999999997
aF0.00041790000000000002
aF0.00048710000000000002
aF0.000386
aF0.000484
aaa(lp2549
S'Create challenge'
p2550
a(lp2551
F5.0000000000000004e-06
aF2.9000000000000002e-06
aF3.1e-06
aF3.1e-06
aF2.9000000000000002e-06
aF3.1e-06
aF2.9000000000000002e-06
aF7.1999999999999997e-06
aF2.9000000000000002e-06
aF3.1e-06
aaa(lp2552
S'Create proof'
p2553
a(lp2554
F3.79e-05
aF3.79e-05
aF3.8099999999999998e-05
aF3.79e-05
aF3.79e-05
aF3.79e-05
aF3.79e-05
aF3.6999999999999998e-05
aF3.6999999999999998e-05
aF3.79e-05
aaa(lp2555
S'Verify file'
p2556
a(lp2557
F9.3900000000000006e-05
aF7.9200000000000001e-05
aF0.0001109
aF7.0099999999999996e-05
aF6.8899999999999994e-05
aF7.8200000000000003e-05
aF6.8899999999999994e-05
aF6.8899999999999994e-05
aF6.9099999999999999e-05
aF6.7899999999999997e-05
aaa(lp2558
S'HEAD'
p2559
a(lp2560
I0
aaa(lp2561
S'GET'
p2562
a(lp2563
I0
aaa(lp2564
S'PUT'
p2565
a(lp2566
I0
aaa(lp2567
S'COPY'
p2568
a(lp2569
I0
aaa(lp2570
S'LIST'
p2571
a(lp2572
I0
aaa(lp2573
S'POST'
p2574
a(lp2575
I0
aaa(lp2576
S'Metadata'
p2577
a(lp2578
S'SEPDP:Block size 4096:PRF key size 20:PRP key size 16:AE key size 16:years 1:minutes 1312:# challenge blocks 512:# threads 4:Filename ../../test-files/testfile_rand_16KB'
p2579
aaa(lp2580
S'Timestamp'
p2581
a(lp2582
I1347569664
aaa(lp2583
S'Block size'
p2584
a(lp2585
I4096
aaa(lp2586
S'PRF key size'
p2587
a(lp2588
I20
aaa(lp2589
S'PRP key size'
p2590
a(lp2591
I16
aaa(lp2592
S'AE key size'
p2593
a(lp2594
I16
aaa(lp2595
S'years'
p2596
a(lp2597
I1
aaa(lp2598
S'minutes'
p2599
a(lp2600
I1312
aaa(lp2601
S'# challenge blocks'
p2602
a(lp2603
I512
aaa(lp2604
S'# threads'
p2605
a(lp2606
I4
aaa(lp2607
g51
a(lp2608
S'16'
p2609
aaatRp2610
ag2
((lp2611
(lp2612
S'Get key'
p2613
a(lp2614
F6.0000000000000002e-06
aaa(lp2615
S'Create tag'
p2616
a(lp2617
F0.00078490000000000005
aF0.000428
aF0.0011251
aF0.00066399999999999999
aF0.00043800000000000002
aF0.00043889999999999999
aF0.0004549
aF0.00045990000000000001
aF0.00044109999999999999
aF0.00050900000000000001
aaa(lp2618
S'Create challenge'
p2619
a(lp2620
F5.0000000000000004e-06
aF2.9000000000000002e-06
aF3.1e-06
aF3.1e-06
aF1.9e-06
aF3.1900000000000003e-05
aF3.1e-06
aF2.9000000000000002e-06
aF3.1e-06
aF3.1e-06
aaa(lp2621
S'Create proof'
p2622
a(lp2623
F9.2e-05
aF0.00010009999999999999
aF8.0099999999999995e-05
aF7.2999999999999999e-05
aF7.2999999999999999e-05
aF7.2999999999999999e-05
aF7.2999999999999999e-05
aF7.2999999999999999e-05
aF7.3200000000000004e-05
aF8.0099999999999995e-05
aaa(lp2624
S'Verify file'
p2625
a(lp2626
F0.0001042
aF7.8899999999999993e-05
aF7.1000000000000005e-05
aF9.2999999999999997e-05
aF6.8899999999999994e-05
aF6.8200000000000004e-05
aF6.8899999999999994e-05
aF6.8899999999999994e-05
aF6.9099999999999999e-05
aF6.8899999999999994e-05
aaa(lp2627
S'HEAD'
p2628
a(lp2629
I0
aaa(lp2630
S'GET'
p2631
a(lp2632
I0
aaa(lp2633
S'PUT'
p2634
a(lp2635
I0
aaa(lp2636
S'COPY'
p2637
a(lp2638
I0
aaa(lp2639
S'LIST'
p2640
a(lp2641
I0
aaa(lp2642
S'POST'
p2643
a(lp2644
I0
aaa(lp2645
S'Metadata'
p2646
a(lp2647
S'SEPDP:Block size 4096:PRF key size 20:PRP key size 16:AE key size 16:years 1:minutes 1312:# challenge blocks 512:# threads 4:Filename ../../test-files/testfile_rand_32KB'
p2648
aaa(lp2649
S'Timestamp'
p2650
a(lp2651
I1347569667
aaa(lp2652
S'Block size'
p2653
a(lp2654
I4096
aaa(lp2655
S'PRF key size'
p2656
a(lp2657
I20
aaa(lp2658
S'PRP key size'
p2659
a(lp2660
I16
aaa(lp2661
S'AE key size'
p2662
a(lp2663
I16
aaa(lp2664
S'years'
p2665
a(lp2666
I1
aaa(lp2667
S'minutes'
p2668
a(lp2669
I1312
aaa(lp2670
S'# challenge blocks'
p2671
a(lp2672
I512
aaa(lp2673
S'# threads'
p2674
a(lp2675
I4
aaa(lp2676
g51
a(lp2677
S'32'
p2678
aaatRp2679
ag2
((lp2680
(lp2681
S'Get key'
p2682
a(lp2683
F6.1999999999999999e-06
aaa(lp2684
S'Create tag'
p2685
a(lp2686
F0.00092009999999999998
aF0.00050810000000000004
aF0.0012209
aF0.00074700000000000005
aF0.00055909999999999998
aF0.00050810000000000004
aF0.00052189999999999995
aF0.00054000000000000001
aF0.00053910000000000004
aF0.00051400000000000003
aaa(lp2687
S'Create challenge'
p2688
a(lp2689
F5.0000000000000004e-06
aF2.9000000000000002e-06
aF3.1e-06
aF3.1e-06
aF2.48e-05
aF3.1e-06
aF3.1e-06
aF2.9000000000000002e-06
aF3.1e-06
aF2.9000000000000002e-06
aaa(lp2690
S'Create proof'
p2691
a(lp2692
F0.00026390000000000002
aF0.000144
aF0.000144
aF0.00014310000000000001
aF0.00016210000000000001
aF0.000144
aF0.00015119999999999999
aF0.0001428
aF0.00016000000000000001
aF0.00014310000000000001
aaa(lp2693
S'Verify file'
p2694
a(lp2695
F0.000103
aF8.8900000000000006e-05
aF7.1000000000000005e-05
aF0.000113
aF6.8899999999999994e-05
aF6.9099999999999999e-05
aF6.8899999999999994e-05
aF6.7899999999999997e-05
aF7.7999999999999999e-05
aF6.9099999999999999e-05
aaa(lp2696
S'HEAD'
p2697
a(lp2698
I0
aaa(lp2699
S'GET'
p2700
a(lp2701
I0
aaa(lp2702
S'PUT'
p2703
a(lp2704
I0
aaa(lp2705
S'COPY'
p2706
a(lp2707
I0
aaa(lp2708
S'LIST'
p2709
a(lp2710
I0
aaa(lp2711
S'POST'
p2712
a(lp2713
I0
aaa(lp2714
S'Metadata'
p2715
a(lp2716
S'SEPDP:Block size 4096:PRF key size 20:PRP key size 16:AE key size 16:years 1:minutes 1312:# challenge blocks 512:# threads 4:Filename ../../test-files/testfile_rand_64KB'
p2717
aaa(lp2718
S'Timestamp'
p2719
a(lp2720
I1347569669
aaa(lp2721
S'Block size'
p2722
a(lp2723
I4096
aaa(lp2724
S'PRF key size'
p2725
a(lp2726
I20
aaa(lp2727
S'PRP key size'
p2728
a(lp2729
I16
aaa(lp2730
S'AE key size'
p2731
a(lp2732
I16
aaa(lp2733
S'years'
p2734
a(lp2735
I1
aaa(lp2736
S'minutes'
p2737
a(lp2738
I1312
aaa(lp2739
S'# challenge blocks'
p2740
a(lp2741
I512
aaa(lp2742
S'# threads'
p2743
a(lp2744
I4
aaa(lp2745
g51
a(lp2746
S'64'
p2747
aaatRp2748
ag2
((lp2749
(lp2750
S'Get key'
p2751
a(lp2752
F7.1999999999999997e-06
aaa(lp2753
S'Create tag'
p2754
a(lp2755
F0.0012209
aF0.00072000000000000005
aF0.0014450999999999999
aF0.00094200000000000002
aF0.000736
aF0.00075600000000000005
aF0.00073479999999999997
aF0.00071500000000000003
aF0.00068400000000000004
aF0.00073890000000000002
aaa(lp2756
S'Create challenge'
p2757
a(lp2758
F5.0000000000000004e-06
aF2.9000000000000002e-06
aF3.1e-06
aF2.9000000000000002e-06
aF3.1e-06
aF2.5000000000000001e-05
aF2.9000000000000002e-06
aF3.1e-06
aF2.9000000000000002e-06
aF3.1e-06
aaa(lp2759
S'Create proof'
p2760
a(lp2761
F0.00032400000000000001
aF0.00030210000000000002
aF0.0002921
aF0.00028489999999999999
aF0.00028610000000000002
aF0.00029179999999999999
aF0.000299
aF0.0002921
aF0.00028489999999999999
aF0.00028610000000000002
aaa(lp2762
S'Verify file'
p2763
a(lp2764
F0.00013799999999999999
aF7.2000000000000002e-05
aF6.8899999999999994e-05
aF6.8200000000000004e-05
aF6.8899999999999994e-05
aF6.7899999999999997e-05
aF8.7000000000000001e-05
aF7.1000000000000005e-05
aF6.7899999999999997e-05
aF6.9099999999999999e-05
aaa(lp2765
S'HEAD'
p2766
a(lp2767
I0
aaa(lp2768
S'GET'
p2769
a(lp2770
I0
aaa(lp2771
S'PUT'
p2772
a(lp2773
I0
aaa(lp2774
S'COPY'
p2775
a(lp2776
I0
aaa(lp2777
S'LIST'
p2778
a(lp2779
I0
aaa(lp2780
S'POST'
p2781
a(lp2782
I0
aaa(lp2783
S'Metadata'
p2784
a(lp2785
S'SEPDP:Block size 4096:PRF key size 20:PRP key size 16:AE key size 16:years 1:minutes 1312:# challenge blocks 512:# threads 4:Filename ../../test-files/testfile_rand_128KB'
p2786
aaa(lp2787
S'Timestamp'
p2788
a(lp2789
I1347569671
aaa(lp2790
S'Block size'
p2791
a(lp2792
I4096
aaa(lp2793
S'PRF key size'
p2794
a(lp2795
I20
aaa(lp2796
S'PRP key size'
p2797
a(lp2798
I16
aaa(lp2799
S'AE key size'
p2800
a(lp2801
I16
aaa(lp2802
S'years'
p2803
a(lp2804
I1
aaa(lp2805
S'minutes'
p2806
a(lp2807
I1312
aaa(lp2808
S'# challenge blocks'
p2809
a(lp2810
I512
aaa(lp2811
S'# threads'
p2812
a(lp2813
I4
aaa(lp2814
g51
a(lp2815
S'128'
p2816
aaatRp2817
ag2
((lp2818
(lp2819
S'Get key'
p2820
a(lp2821
F6.0000000000000002e-06
aaa(lp2822
S'Create tag'
p2823
a(lp2824
F0.0019341
aF0.0012419
aF0.0019580999999999999
aF0.0014538999999999999
aF0.0011620999999999999
aF0.0011739999999999999
aF0.0011651999999999999
aF0.0011718
aF0.0011980999999999999
aF0.0011739999999999999
aaa(lp2825
S'Create challenge'
p2826
a(lp2827
F3.8e-06
aF2.9000000000000002e-06
aF2.0999999999999998e-06
aF1.9e-06
aF3.1e-06
aF2.9000000000000002e-06
aF3.1e-06
aF2.9000000000000002e-06
aF3.1e-06
aF3.1e-06
aaa(lp2828
S'Create proof'
p2829
a(lp2830
F0.00058410000000000005
aF0.00056599999999999999
aF0.00058100000000000003
aF0.00057289999999999999
aF0.00065799999999999995
aF0.00056510000000000002
aF0.00059009999999999998
aF0.00057510000000000005
aF0.00057819999999999996
aF0.00056510000000000002
aaa(lp2831
S'Verify file'
p2832
a(lp2833
F0.00013019999999999999
aF0.00010179999999999999
aF7.1000000000000005e-05
aF6.9099999999999999e-05
aF6.8899999999999994e-05
aF6.7899999999999997e-05
aF7.6100000000000007e-05
aF7.1000000000000005e-05
aF6.8899999999999994e-05
aF6.8200000000000004e-05
aaa(lp2834
S'HEAD'
p2835
a(lp2836
I0
aaa(lp2837
S'GET'
p2838
a(lp2839
I0
aaa(lp2840
S'PUT'
p2841
a(lp2842
I0
aaa(lp2843
S'COPY'
p2844
a(lp2845
I0
aaa(lp2846
S'LIST'
p2847
a(lp2848
I0
aaa(lp2849
S'POST'
p2850
a(lp2851
I0
aaa(lp2852
S'Metadata'
p2853
a(lp2854
S'SEPDP:Block size 4096:PRF key size 20:PRP key size 16:AE key size 16:years 1:minutes 1312:# challenge blocks 512:# threads 4:Filename ../../test-files/testfile_rand_256KB'
p2855
aaa(lp2856
S'Timestamp'
p2857
a(lp2858
I1347569674
aaa(lp2859
S'Block size'
p2860
a(lp2861
I4096
aaa(lp2862
S'PRF key size'
p2863
a(lp2864
I20
aaa(lp2865
S'PRP key size'
p2866
a(lp2867
I16
aaa(lp2868
S'AE key size'
p2869
a(lp2870
I16
aaa(lp2871
S'years'
p2872
a(lp2873
I1
aaa(lp2874
S'minutes'
p2875
a(lp2876
I1312
aaa(lp2877
S'# challenge blocks'
p2878
a(lp2879
I512
aaa(lp2880
S'# threads'
p2881
a(lp2882
I4
aaa(lp2883
g51
a(lp2884
S'256'
p2885
aaatRp2886
ag2
((lp2887
(lp2888
S'Get key'
p2889
a(lp2890
F6.0000000000000002e-06
aaa(lp2891
S'Create tag'
p2892
a(lp2893
F0.0029190000000000002
aF0.0022870999999999998
aF0.0029528000000000002
aF0.0022812000000000002
aF0.0021970000000000002
aF0.0022030000000000001
aF0.0021930000000000001
aF0.0022959999999999999
aF0.0022239999999999998
aF0.0022079999999999999
aaa(lp2894
S'Create challenge'
p2895
a(lp2896
F5.0000000000000004e-06
aF3.1e-06
aF2.9000000000000002e-06
aF3.1e-06
aF2.9000000000000002e-06
aF3.1e-06
aF1.9e-06
aF1.9e-06
aF1.9e-06
aF3.1e-06
aaa(lp2897
S'Create proof'
p2898
a(lp2899
F0.0011301
aF0.0011429999999999999
aF0.0011280000000000001
aF0.0011280000000000001
aF0.0011289
aF0.001132
aF0.001127
aF0.0011439
aF0.0011429999999999999
aF0.0011289
aaa(lp2900
S'Verify file'
p2901
a(lp2902
F0.0001171
aF7.2999999999999999e-05
aF7.0099999999999996e-05
aF0.0001161
aF7.8899999999999993e-05
aF6.9900000000000005e-05
aF7.0099999999999996e-05
aF6.8899999999999994e-05
aF6.9099999999999999e-05
aF6.8899999999999994e-05
aaa(lp2903
S'HEAD'
p2904
a(lp2905
I0
aaa(lp2906
S'GET'
p2907
a(lp2908
I0
aaa(lp2909
S'PUT'
p2910
a(lp2911
I0
aaa(lp2912
S'COPY'
p2913
a(lp2914
I0
aaa(lp2915
S'LIST'
p2916
a(lp2917
I0
aaa(lp2918
S'POST'
p2919
a(lp2920
I0
aaa(lp2921
S'Metadata'
p2922
a(lp2923
S'SEPDP:Block size 4096:PRF key size 20:PRP key size 16:AE key size 16:years 1:minutes 1312:# challenge blocks 512:# threads 4:Filename ../../test-files/testfile_rand_512KB'
p2924
aaa(lp2925
S'Timestamp'
p2926
a(lp2927
I1347569677
aaa(lp2928
S'Block size'
p2929
a(lp2930
I4096
aaa(lp2931
S'PRF key size'
p2932
a(lp2933
I20
aaa(lp2934
S'PRP key size'
p2935
a(lp2936
I16
aaa(lp2937
S'AE key size'
p2938
a(lp2939
I16
aaa(lp2940
S'years'
p2941
a(lp2942
I1
aaa(lp2943
S'minutes'
p2944
a(lp2945
I1312
aaa(lp2946
S'# challenge blocks'
p2947
a(lp2948
I512
aaa(lp2949
S'# threads'
p2950
a(lp2951
I4
aaa(lp2952
g51
a(lp2953
S'512'
p2954
aaatRp2955
ag2
((lp2956
(lp2957
S'Get key'
p2958
a(lp2959
F6.0000000000000002e-06
aaa(lp2960
S'Create tag'
p2961
a(lp2962
F0.0052252000000000002
aF0.0044599000000000001
aF0.0047578999999999998
aF0.0044400999999999998
aF0.0043299000000000002
aF0.0043600000000000002
aF0.0043280000000000002
aF0.0044951000000000001
aF0.0043540000000000002
aF0.0043819000000000002
aaa(lp2963
S'Create challenge'
p2964
a(lp2965
F5.0000000000000004e-06
aF2.9000000000000002e-06
aF3.1e-06
aF3.1e-06
aF2.9000000000000002e-06
aF3.1e-06
aF2.9000000000000002e-06
aF3.1e-06
aF3.29e-05
aF4.0999999999999997e-06
aaa(lp2966
S'Create proof'
p2967
a(lp2968
F0.0022618999999999998
aF0.0022650000000000001
aF0.0022599999999999999
aF0.0022718999999999999
aF0.0022580999999999999
aF0.0022599999999999999
aF0.0022897999999999998
aF0.0022550000000000001
aF0.0022950000000000002
aF0.0022539999999999999
aaa(lp2969
S'Verify file'
p2970
a(lp2971
F0.00012210000000000001
aF7.2000000000000002e-05
aF7.0099999999999996e-05
aF0.0001149
aF7.0099999999999996e-05
aF6.9900000000000005e-05
aF6.9099999999999999e-05
aF6.8899999999999994e-05
aF6.8899999999999994e-05
aF6.9099999999999999e-05
aaa(lp2972
S'HEAD'
p2973
a(lp2974
I0
aaa(lp2975
S'GET'
p2976
a(lp2977
I0
aaa(lp2978
S'PUT'
p2979
a(lp2980
I0
aaa(lp2981
S'COPY'
p2982
a(lp2983
I0
aaa(lp2984
S'LIST'
p2985
a(lp2986
I0
aaa(lp2987
S'POST'
p2988
a(lp2989
I0
aaa(lp2990
S'Metadata'
p2991
a(lp2992
S'SEPDP:Block size 4096:PRF key size 20:PRP key size 16:AE key size 16:years 1:minutes 1312:# challenge blocks 512:# threads 4:Filename ../../test-files/testfile_rand_1024KB'
p2993
aaa(lp2994
S'Timestamp'
p2995
a(lp2996
I1347569681
aaa(lp2997
S'Block size'
p2998
a(lp2999
I4096
aaa(lp3000
S'PRF key size'
p3001
a(lp3002
I20
aaa(lp3003
S'PRP key size'
p3004
a(lp3005
I16
aaa(lp3006
S'AE key size'
p3007
a(lp3008
I16
aaa(lp3009
S'years'
p3010
a(lp3011
I1
aaa(lp3012
S'minutes'
p3013
a(lp3014
I1312
aaa(lp3015
S'# challenge blocks'
p3016
a(lp3017
I512
aaa(lp3018
S'# threads'
p3019
a(lp3020
I4
aaa(lp3021
g51
a(lp3022
S'1024'
p3023
aaatRp3024
ag2
((lp3025
(lp3026
S'Get key'
p3027
a(lp3028
F1.31e-05
aaa(lp3029
S'Create tag'
p3030
a(lp3031
F0.0102808
aF0.0092908999999999995
aF0.0091070999999999999
aF0.0089380999999999992
aF0.0089008999999999998
aF0.0088830000000000003
aF0.0088269999999999998
aF0.0089610000000000002
aF0.0089408999999999999
aF0.0093191000000000003
aaa(lp3032
S'Create challenge'
p3033
a(lp3034
F6.0000000000000002e-06
aF3.1e-06
aF2.9000000000000002e-06
aF3.1e-06
aF2.9000000000000002e-06
aF3.1e-06
aF3.1e-06
aF2.9000000000000002e-06
aF3.1e-06
aF2.9000000000000002e-06
aaa(lp3035
S'Create proof'
p3036
a(lp3037
F0.0045380999999999998
aF0.0045459000000000003
aF0.004529
aF0.0045339999999999998
aF0.0045170999999999996
aF0.0060791999999999999
aF0.0045859999999999998
aF0.0045979000000000003
aF0.0045351999999999996
aF0.0045158999999999998
aaa(lp3038
S'Verify file'
p3039
a(lp3040
F0.00058200000000000005
aF0.00012400000000000001
aF7.2000000000000002e-05
aF7.0099999999999996e-05
aF6.9900000000000005e-05
aF6.9099999999999999e-05
aF6.9900000000000005e-05
aF6.9099999999999999e-05
aF9.7999999999999997e-05
aF7.1000000000000005e-05
aaa(lp3041
S'HEAD'
p3042
a(lp3043
I0
aaa(lp3044
S'GET'
p3045
a(lp3046
I0
aaa(lp3047
S'PUT'
p3048
a(lp3049
I0
aaa(lp3050
S'COPY'
p3051
a(lp3052
I0
aaa(lp3053
S'LIST'
p3054
a(lp3055
I0
aaa(lp3056
S'POST'
p3057
a(lp3058
I0
aaa(lp3059
S'Metadata'
p3060
a(lp3061
S'SEPDP:Block size 4096:PRF key size 20:PRP key size 16:AE key size 16:years 1:minutes 1312:# challenge blocks 512:# threads 4:Filename ../../test-files/testfile_rand_2048KB'
p3062
aaa(lp3063
S'Timestamp'
p3064
a(lp3065
I1347569686
aaa(lp3066
S'Block size'
p3067
a(lp3068
I4096
aaa(lp3069
S'PRF key size'
p3070
a(lp3071
I20
aaa(lp3072
S'PRP key size'
p3073
a(lp3074
I16
aaa(lp3075
S'AE key size'
p3076
a(lp3077
I16
aaa(lp3078
S'years'
p3079
a(lp3080
I1
aaa(lp3081
S'minutes'
p3082
a(lp3083
I1312
aaa(lp3084
S'# challenge blocks'
p3085
a(lp3086
I512
aaa(lp3087
S'# threads'
p3088
a(lp3089
I4
aaa(lp3090
g51
a(lp3091
S'2048'
p3092
aaatRp3093
ag2
((lp3094
(lp3095
S'Get key'
p3096
a(lp3097
F6.0000000000000002e-06
aaa(lp3098
S'Create tag'
p3099
a(lp3100
F0.010492100000000001
aF0.0094759000000000006
aF0.052192000000000002
aF0.0095031000000000004
aF0.009299
aF0.0092248999999999994
aF0.0092130000000000007
aF0.0092689999999999995
aF0.0092999999999999992
aF0.0091941000000000002
aaa(lp3101
S'Create challenge'
p3102
a(lp3103
F6.0000000000000002e-06
aF3.1e-06
aF1.9e-06
aF1.9e-06
aF2.9000000000000002e-06
aF3.1e-06
aF3.1e-06
aF2.9000000000000002e-06
aF3.1e-06
aF2.9000000000000002e-06
aaa(lp3104
S'Create proof'
p3105
a(lp3106
F0.0046470000000000001
aF0.004653
aF0.0046208000000000004
aF0.0046489000000000001
aF0.0046357999999999998
aF0.0046560999999999998
aF0.0051250000000000002
aF0.0046620000000000003
aF0.0046500999999999999
aF0.0046289
aaa(lp3107
S'Verify file'
p3108
a(lp3109
F0.0001249
aF0.0001111
aF7.5799999999999999e-05
aF7.6100000000000007e-05
aF9.2e-05
aF7.7000000000000001e-05
aF7.5099999999999996e-05
aF7.5799999999999999e-05
aF6.9099999999999999e-05
aF6.8899999999999994e-05
aaa(lp3110
S'HEAD'
p3111
a(lp3112
I0
aaa(lp3113
S'GET'
p3114
a(lp3115
I0
aaa(lp3116
S'PUT'
p3117
a(lp3118
I0
aaa(lp3119
S'COPY'
p3120
a(lp3121
I0
aaa(lp3122
S'LIST'
p3123
a(lp3124
I0
aaa(lp3125
S'POST'
p3126
a(lp3127
I0
aaa(lp3128
S'Metadata'
p3129
a(lp3130
S'SEPDP:Block size 4096:PRF key size 20:PRP key size 16:AE key size 16:years 1:minutes 1312:# challenge blocks 512:# threads 4:Filename ../../test-files/testfile_rand_4096KB'
p3131
aaa(lp3132
S'Timestamp'
p3133
a(lp3134
I1347569693
aaa(lp3135
S'Block size'
p3136
a(lp3137
I4096
aaa(lp3138
S'PRF key size'
p3139
a(lp3140
I20
aaa(lp3141
S'PRP key size'
p3142
a(lp3143
I16
aaa(lp3144
S'AE key size'
p3145
a(lp3146
I16
aaa(lp3147
S'years'
p3148
a(lp3149
I1
aaa(lp3150
S'minutes'
p3151
a(lp3152
I1312
aaa(lp3153
S'# challenge blocks'
p3154
a(lp3155
I512
aaa(lp3156
S'# threads'
p3157
a(lp3158
I4
aaa(lp3159
g51
a(lp3160
S'4096'
p3161
aaatRp3162
ag2
((lp3163
(lp3164
S'Get key'
p3165
a(lp3166
F6.9e-06
aaa(lp3167
S'Create tag'
p3168
a(lp3169
F0.010470200000000001
aF0.009613
aF0.010586
aF0.0095060000000000006
aF0.0093710000000000009
aF0.0092490000000000003
aF0.009665
aF0.0093998999999999992
aF0.0093112000000000004
aF0.0092390000000000007
aaa(lp3170
S'Create challenge'
p3171
a(lp3172
F6.1999999999999999e-06
aF2.9000000000000002e-06
aF3.1e-06
aF2.9000000000000002e-06
aF3.1e-06
aF2.9000000000000002e-06
aF2.0999999999999998e-06
aF1.9e-06
aF3.1e-06
aF3.1e-06
aaa(lp3173
S'Create proof'
p3174
a(lp3175
F0.004627
aF0.0046411000000000004
aF0.0046010000000000001
aF0.0046278999999999999
aF0.0046030999999999997
aF0.0046360000000000004
aF0.0046169999999999996
aF0.0046010000000000001
aF0.0046059999999999999
aF0.0046188999999999996
aaa(lp3176
S'Verify file'
p3177
a(lp3178
F0.0001841
aF8.0099999999999995e-05
aF0.00015190000000000001
aF7.7999999999999999e-05
aF7.7000000000000001e-05
aF8.6100000000000006e-05
aF7.7999999999999999e-05
aF7.7000000000000001e-05
aF8.8900000000000006e-05
aF7.2000000000000002e-05
aaa(lp3179
S'HEAD'
p3180
a(lp3181
I0
aaa(lp3182
S'GET'
p3183
a(lp3184
I0
aaa(lp3185
S'PUT'
p3186
a(lp3187
I0
aaa(lp3188
S'COPY'
p3189
a(lp3190
I0
aaa(lp3191
S'LIST'
p3192
a(lp3193
I0
aaa(lp3194
S'POST'
p3195
a(lp3196
I0
aaa(lp3197
S'Metadata'
p3198
a(lp3199
S'SEPDP:Block size 4096:PRF key size 20:PRP key size 16:AE key size 16:years 1:minutes 1312:# challenge blocks 512:# threads 4:Filename ../../test-files/testfile_rand_8192KB'
p3200
aaa(lp3201
S'Timestamp'
p3202
a(lp3203
I1347569706
aaa(lp3204
S'Block size'
p3205
a(lp3206
I4096
aaa(lp3207
S'PRF key size'
p3208
a(lp3209
I20
aaa(lp3210
S'PRP key size'
p3211
a(lp3212
I16
aaa(lp3213
S'AE key size'
p3214
a(lp3215
I16
aaa(lp3216
S'years'
p3217
a(lp3218
I1
aaa(lp3219
S'minutes'
p3220
a(lp3221
I1312
aaa(lp3222
S'# challenge blocks'
p3223
a(lp3224
I512
aaa(lp3225
S'# threads'
p3226
a(lp3227
I4
aaa(lp3228
g51
a(lp3229
S'8192'
p3230
aaatRp3231
ag2
((lp3232
(lp3233
S'Get key'
p3234
a(lp3235
F5.0000000000000004e-06
aaa(lp3236
S'Create tag'
p3237
a(lp3238
F0.010433899999999999
aF0.0096828999999999995
aF0.0094298999999999997
aF0.0093810999999999999
aF0.0096769000000000004
aF0.0097050999999999995
aF0.0095489000000000008
aF0.0094289999999999999
aF0.0094240000000000001
aF0.009443
aaa(lp3239
S'Create challenge'
p3240
a(lp3241
F7.1999999999999997e-06
aF2.9000000000000002e-06
aF3.1e-06
aF3.1e-06
aF2.9000000000000002e-06
aF3.1e-06
aF2.9000000000000002e-06
aF2.0999999999999998e-06
aF2.69e-05
aF3.1e-06
aaa(lp3242
S'Create proof'
p3243
a(lp3244
F0.0047387999999999996
aF0.0046090999999999997
aF0.0046048
aF0.0046090999999999997
aF0.0046259999999999999
aF0.0046128999999999996
aF0.0046430000000000004
aF0.0046328999999999997
aF0.0046289
aF0.0046349
aaa(lp3245
S'Verify file'
p3246
a(lp3247
F0.00016809999999999999
aF0.0001349
aF7.2999999999999999e-05
aF6.9099999999999999e-05
aF6.8899999999999994e-05
aF6.9099999999999999e-05
aF6.8899999999999994e-05
aF9.2e-05
aF6.9900000000000005e-05
aF6.9099999999999999e-05
aaa(lp3248
S'HEAD'
p3249
a(lp3250
I0
aaa(lp3251
S'GET'
p3252
a(lp3253
I0
aaa(lp3254
S'PUT'
p3255
a(lp3256
I0
aaa(lp3257
S'COPY'
p3258
a(lp3259
I0
aaa(lp3260
S'LIST'
p3261
a(lp3262
I0
aaa(lp3263
S'POST'
p3264
a(lp3265
I0
aaa(lp3266
S'Metadata'
p3267
a(lp3268
S'SEPDP:Block size 4096:PRF key size 20:PRP key size 16:AE key size 16:years 1:minutes 1312:# challenge blocks 512:# threads 4:Filename ../../test-files/testfile_rand_16384KB'
p3269
aaa(lp3270
S'Timestamp'
p3271
a(lp3272
I1347569728
aaa(lp3273
S'Block size'
p3274
a(lp3275
I4096
aaa(lp3276
S'PRF key size'
p3277
a(lp3278
I20
aaa(lp3279
S'PRP key size'
p3280
a(lp3281
I16
aaa(lp3282
S'AE key size'
p3283
a(lp3284
I16
aaa(lp3285
S'years'
p3286
a(lp3287
I1
aaa(lp3288
S'minutes'
p3289
a(lp3290
I1312
aaa(lp3291
S'# challenge blocks'
p3292
a(lp3293
I512
aaa(lp3294
S'# threads'
p3295
a(lp3296
I4
aaa(lp3297
g51
a(lp3298
S'16384'
p3299
aaatRp3300
ag2
((lp3301
(lp3302
S'Get key'
p3303
a(lp3304
F6.0000000000000002e-06
aaa(lp3305
S'Create tag'
p3306
a(lp3307
F0.0104709
aF0.0097070000000000004
aF0.0094972000000000008
aF0.0096030000000000004
aF0.0095069000000000004
aF0.0094371000000000003
aF0.0093889000000000004
aF0.0093650999999999995
aF0.0096559999999999997
aF0.0140891
aaa(lp3308
S'Create challenge'
p3309
a(lp3310
F6.9e-06
aF3.1e-06
aF1.9e-06
aF2.0999999999999998e-06
aF2.9000000000000002e-06
aF3.1e-06
aF2.9000000000000002e-06
aF3.1e-06
aF3.1e-06
aF2.9000000000000002e-06
aaa(lp3311
S'Create proof'
p3312
a(lp3313
F0.0046309999999999997
aF0.0046349
aF0.0047039999999999998
aF0.0047108999999999996
aF0.0046420000000000003
aF0.0046661000000000003
aF0.0046350999999999996
aF0.0046360000000000004
aF0.0046278999999999999
aF0.0046278999999999999
aaa(lp3314
S'Verify file'
p3315
a(lp3316
F0.00022699999999999999
aF7.7000000000000001e-05
aF6.8899999999999994e-05
aF6.8899999999999994e-05
aF6.8899999999999994e-05
aF9.1100000000000005e-05
aF7.1000000000000005e-05
aF6.9099999999999999e-05
aF6.8899999999999994e-05
aF6.8899999999999994e-05
aaa(lp3317
S'HEAD'
p3318
a(lp3319
I0
aaa(lp3320
S'GET'
p3321
a(lp3322
I0
aaa(lp3323
S'PUT'
p3324
a(lp3325
I0
aaa(lp3326
S'COPY'
p3327
a(lp3328
I0
aaa(lp3329
S'LIST'
p3330
a(lp3331
I0
aaa(lp3332
S'POST'
p3333
a(lp3334
I0
aaa(lp3335
S'Metadata'
p3336
a(lp3337
S'SEPDP:Block size 4096:PRF key size 20:PRP key size 16:AE key size 16:years 1:minutes 1312:# challenge blocks 512:# threads 4:Filename ../../test-files/testfile_rand_32768KB'
p3338
aaa(lp3339
S'Timestamp'
p3340
a(lp3341
I1347569770
aaa(lp3342
S'Block size'
p3343
a(lp3344
I4096
aaa(lp3345
S'PRF key size'
p3346
a(lp3347
I20
aaa(lp3348
S'PRP key size'
p3349
a(lp3350
I16
aaa(lp3351
S'AE key size'
p3352
a(lp3353
I16
aaa(lp3354
S'years'
p3355
a(lp3356
I1
aaa(lp3357
S'minutes'
p3358
a(lp3359
I1312
aaa(lp3360
S'# challenge blocks'
p3361
a(lp3362
I512
aaa(lp3363
S'# threads'
p3364
a(lp3365
I4
aaa(lp3366
g51
a(lp3367
S'32768'
p3368
aaatRp3369
ag2
((lp3370
(lp3371
S'Get key'
p3372
a(lp3373
F2.12e-05
aaa(lp3374
S'Create tag'
p3375
a(lp3376
F0.010503999999999999
aF0.0096900000000000007
aF0.0094590000000000004
aF0.0094699999999999993
aF0.0095930000000000008
aF0.0095119000000000002
aF0.0093591000000000004
aF0.0094318000000000006
aF0.0095191000000000008
aF0.0093738999999999992
aaa(lp3377
S'Create challenge'
p3378
a(lp3379
F6.9e-06
aF3.1e-06
aF3.1e-06
aF2.9000000000000002e-06
aF9.7999999999999997e-05
aF2.0999999999999998e-06
aF2.9000000000000002e-06
aF3.1e-06
aF3.1e-06
aF2.9000000000000002e-06
aaa(lp3380
S'Create proof'
p3381
a(lp3382
F0.004627
aF0.0046109999999999996
aF0.0046771
aF0.0046538999999999999
aF0.0046338999999999998
aF0.0046258000000000002
aF0.0046048
aF0.0047537999999999999
aF0.0046030999999999997
aF0.0046639000000000003
aaa(lp3383
S'Verify file'
p3384
a(lp3385
F0.00021100000000000001
aF7.3899999999999994e-05
aF7.0099999999999996e-05
aF7.0099999999999996e-05
aF6.9900000000000005e-05
aF7.0099999999999996e-05
aF7.7999999999999999e-05
aF6.9099999999999999e-05
aF6.9900000000000005e-05
aF7.0099999999999996e-05
aaa(lp3386
S'HEAD'
p3387
a(lp3388
I0
aaa(lp3389
S'GET'
p3390
a(lp3391
I0
aaa(lp3392
S'PUT'
p3393
a(lp3394
I0
aaa(lp3395
S'COPY'
p3396
a(lp3397
I0
aaa(lp3398
S'LIST'
p3399
a(lp3400
I0
aaa(lp3401
S'POST'
p3402
a(lp3403
I0
aaa(lp3404
S'Metadata'
p3405
a(lp3406
S'SEPDP:Block size 4096:PRF key size 20:PRP key size 16:AE key size 16:years 1:minutes 1312:# challenge blocks 512:# threads 4:Filename ../../test-files/testfile_rand_65536KB'
p3407
aaa(lp3408
S'Timestamp'
p3409
a(lp3410
I1347569850
aaa(lp3411
S'Block size'
p3412
a(lp3413
I4096
aaa(lp3414
S'PRF key size'
p3415
a(lp3416
I20
aaa(lp3417
S'PRP key size'
p3418
a(lp3419
I16
aaa(lp3420
S'AE key size'
p3421
a(lp3422
I16
aaa(lp3423
S'years'
p3424
a(lp3425
I1
aaa(lp3426
S'minutes'
p3427
a(lp3428
I1312
aaa(lp3429
S'# challenge blocks'
p3430
a(lp3431
I512
aaa(lp3432
S'# threads'
p3433
a(lp3434
I4
aaa(lp3435
g51
a(lp3436
S'65536'
p3437
aaatRp3438
ag2
((lp3439
(lp3440
S'Get key'
p3441
a(lp3442
F1.1e-05
aaa(lp3443
S'Create tag'
p3444
a(lp3445
F0.0106351
aF0.0099719000000000006
aF0.0096672000000000008
aF0.0095169999999999994
aF0.0094099000000000006
aF0.0094050999999999996
aF0.0093609999999999995
aF0.0095409999999999991
aF0.0094768999999999999
aF0.0092940000000000002
aaa(lp3446
S'Create challenge'
p3447
a(lp3448
F6.0000000000000002e-06
aF3.1e-06
aF2.9000000000000002e-06
aF3.1e-06
aF3.1e-06
aF2.9000000000000002e-06
aF3.1e-06
aF3.8899999999999997e-05
aF3.1e-06
aF2.9000000000000002e-06
aaa(lp3449
S'Create proof'
p3450
a(lp3451
F0.0046029
aF0.0049620000000000003
aF0.0047099999999999998
aF0.004653
aF0.0046210000000000001
aF0.0046131999999999996
aF0.0046090999999999997
aF0.0046078999999999998
aF0.0046100999999999998
aF0.0046629999999999996
aaa(lp3452
S'Verify file'
p3453
a(lp3454
F0.0001271
aF0.00013090000000000001
aF7.1000000000000005e-05
aF0.00016310000000000001
aF7.2999999999999999e-05
aF7.0099999999999996e-05
aF7.9900000000000004e-05
aF7.0099999999999996e-05
aF7.1000000000000005e-05
aF6.8899999999999994e-05
aaa(lp3455
S'HEAD'
p3456
a(lp3457
I0
aaa(lp3458
S'GET'
p3459
a(lp3460
I0
aaa(lp3461
S'PUT'
p3462
a(lp3463
I0
aaa(lp3464
S'COPY'
p3465
a(lp3466
I0
aaa(lp3467
S'LIST'
p3468
a(lp3469
I0
aaa(lp3470
S'POST'
p3471
a(lp3472
I0
aaa(lp3473
S'Metadata'
p3474
a(lp3475
S'SEPDP:Block size 4096:PRF key size 20:PRP key size 16:AE key size 16:years 1:minutes 1312:# challenge blocks 512:# threads 4:Filename ../../test-files/testfile_rand_131072KB'
p3476
aaa(lp3477
S'Timestamp'
p3478
a(lp3479
I1347570006
aaa(lp3480
S'Block size'
p3481
a(lp3482
I4096
aaa(lp3483
S'PRF key size'
p3484
a(lp3485
I20
aaa(lp3486
S'PRP key size'
p3487
a(lp3488
I16
aaa(lp3489
S'AE key size'
p3490
a(lp3491
I16
aaa(lp3492
S'years'
p3493
a(lp3494
I1
aaa(lp3495
S'minutes'
p3496
a(lp3497
I1312
aaa(lp3498
S'# challenge blocks'
p3499
a(lp3500
I512
aaa(lp3501
S'# threads'
p3502
a(lp3503
I4
aaa(lp3504
g51
a(lp3505
S'131072'
p3506
aaatRp3507
ag2
((lp3508
(lp3509
S'Get key'
p3510
a(lp3511
F6.9e-06
aaa(lp3512
S'Create tag'
p3513
a(lp3514
F0.0105939
aF0.0097429999999999999
aF0.0095160000000000002
aF0.0093857999999999997
aF0.0094750000000000008
aF0.0094409000000000003
aF0.0094461000000000007
aF0.0095689
aF0.0096060999999999994
aF0.0093419999999999996
aaa(lp3515
S'Create challenge'
p3516
a(lp3517
F6.0000000000000002e-06
aF3.1e-06
aF2.9000000000000002e-06
aF3.1e-06
aF3.1e-06
aF2.9000000000000002e-06
aF3.1e-06
aF2.9000000000000002e-06
aF3.1e-06
aF2.9000000000000002e-06
aaa(lp3518
S'Create proof'
p3519
a(lp3520
F0.0047149999999999996
aF0.0048211
aF0.0046569999999999997
aF0.0046179000000000003
aF0.0046239000000000002
aF0.0045909999999999996
aF0.0046229000000000001
aF0.0046131999999999996
aF0.0045928999999999996
aF0.0046030999999999997
aaa(lp3521
S'Verify file'
p3522
a(lp3523
F0.00015899999999999999
aF7.2000000000000002e-05
aF6.9099999999999999e-05
aF6.9900000000000005e-05
aF6.9099999999999999e-05
aF8.1799999999999996e-05
aF7.0099999999999996e-05
aF6.8899999999999994e-05
aF6.9099999999999999e-05
aF6.9900000000000005e-05
aaa(lp3524
S'HEAD'
p3525
a(lp3526
I0
aaa(lp3527
S'GET'
p3528
a(lp3529
I0
aaa(lp3530
S'PUT'
p3531
a(lp3532
I0
aaa(lp3533
S'COPY'
p3534
a(lp3535
I0
aaa(lp3536
S'LIST'
p3537
a(lp3538
I0
aaa(lp3539
S'POST'
p3540
a(lp3541
I0
aaa(lp3542
S'Metadata'
p3543
a(lp3544
S'SEPDP:Block size 4096:PRF key size 20:PRP key size 16:AE key size 16:years 1:minutes 1312:# challenge blocks 512:# threads 4:Filename ../../test-files/testfile_rand_262144KB'
p3545
aaa(lp3546
S'Timestamp'
p3547
a(lp3548
I1347570313
aaa(lp3549
S'Block size'
p3550
a(lp3551
I4096
aaa(lp3552
S'PRF key size'
p3553
a(lp3554
I20
aaa(lp3555
S'PRP key size'
p3556
a(lp3557
I16
aaa(lp3558
S'AE key size'
p3559
a(lp3560
I16
aaa(lp3561
S'years'
p3562
a(lp3563
I1
aaa(lp3564
S'minutes'
p3565
a(lp3566
I1312
aaa(lp3567
S'# challenge blocks'
p3568
a(lp3569
I512
aaa(lp3570
S'# threads'
p3571
a(lp3572
I4
aaa(lp3573
g51
a(lp3574
S'262144'
p3575
aaatRp3576
ag2
((lp3577
(lp3578
S'Get key'
p3579
a(lp3580
F8.1000000000000004e-06
aaa(lp3581
S'Create tag'
p3582
a(lp3583
F0.012893
aF0.010468999999999999
aF0.0098221000000000003
aF0.0099459000000000006
aF0.0107121
aF0.010673999999999999
aF0.0098168999999999999
aF0.0095297999999999997
aF0.0103879
aF0.0099950000000000004
aaa(lp3584
S'Create challenge'
p3585
a(lp3586
F6.9e-06
aF3.1e-06
aF2.9000000000000002e-06
aF3.1e-06
aF2.9000000000000002e-06
aF3.1e-06
aF3.1e-06
aF2.9000000000000002e-06
aF3.1e-06
aF2.9000000000000002e-06
aaa(lp3587
S'Create proof'
p3588
a(lp3589
F0.0046639000000000003
aF0.0046290999999999997
aF0.0046097999999999998
aF0.004627
aF0.0046051
aF0.0046721000000000002
aF0.0046299000000000002
aF0.0046369999999999996
aF0.004607
aF0.0045969000000000001
aaa(lp3590
S'Verify file'
p3591
a(lp3592
F0.000155
aF7.6100000000000007e-05
aF7.8899999999999993e-05
aF7.1000000000000005e-05
aF6.9099999999999999e-05
aF6.8899999999999994e-05
aF7.0099999999999996e-05
aF6.8899999999999994e-05
aF6.9099999999999999e-05
aF8.7999999999999998e-05
aaa(lp3593
S'HEAD'
p3594
a(lp3595
I0
aaa(lp3596
S'GET'
p3597
a(lp3598
I0
aaa(lp3599
S'PUT'
p3600
a(lp3601
I0
aaa(lp3602
S'COPY'
p3603
a(lp3604
I0
aaa(lp3605
S'LIST'
p3606
a(lp3607
I0
aaa(lp3608
S'POST'
p3609
a(lp3610
I0
aaa(lp3611
S'Metadata'
p3612
a(lp3613
S'SEPDP:Block size 4096:PRF key size 20:PRP key size 16:AE key size 16:years 1:minutes 1312:# challenge blocks 512:# threads 4:Filename ../../test-files/testfile_rand_524288KB'
p3614
aaa(lp3615
S'Timestamp'
p3616
a(lp3617
I1347570929
aaa(lp3618
S'Block size'
p3619
a(lp3620
I4096
aaa(lp3621
S'PRF key size'
p3622
a(lp3623
I20
aaa(lp3624
S'PRP key size'
p3625
a(lp3626
I16
aaa(lp3627
S'AE key size'
p3628
a(lp3629
I16
aaa(lp3630
S'years'
p3631
a(lp3632
I1
aaa(lp3633
S'minutes'
p3634
a(lp3635
I1312
aaa(lp3636
S'# challenge blocks'
p3637
a(lp3638
I512
aaa(lp3639
S'# threads'
p3640
a(lp3641
I4
aaa(lp3642
g51
a(lp3643
S'524288'
p3644
aaatRp3645
ag2
((lp3646
(lp3647
S'Get key'
p3648
a(lp3649
F1.1e-05
aaa(lp3650
S'Create tag'
p3651
a(lp3652
F0.013273
aF0.011224
aF0.0097958999999999997
aF0.0096439999999999998
aF0.0096428
aF0.0095087999999999995
aF0.0095160000000000002
aF0.0095122000000000002
aF0.0094549999999999999
aF0.0098832
aaa(lp3653
S'Create challenge'
p3654
a(lp3655
F7.1999999999999997e-06
aF2.9000000000000002e-06
aF3.1e-06
aF2.9000000000000002e-06
aF3.1e-06
aF3.6000000000000001e-05
aF3.1e-06
aF2.9000000000000002e-06
aF3.1e-06
aF2.9000000000000002e-06
aaa(lp3656
S'Create proof'
p3657
a(lp3658
F0.0056271999999999997
aF0.0046420000000000003
aF0.0046480000000000002
aF0.004627
aF0.0046401000000000003
aF0.0046718000000000003
aF0.0046369999999999996
aF0.0046328999999999997
aF0.0046278999999999999
aF0.0046519999999999999
aaa(lp3659
S'Verify file'
p3660
a(lp3661
F0.000176
aF7.2999999999999999e-05
aF7.1000000000000005e-05
aF7.0099999999999996e-05
aF6.9900000000000005e-05
aF7.0099999999999996e-05
aF6.9900000000000005e-05
aF8.1100000000000006e-05
aF7.1000000000000005e-05
aF7.0099999999999996e-05
aaa(lp3662
S'HEAD'
p3663
a(lp3664
I0
aaa(lp3665
S'GET'
p3666
a(lp3667
I0
aaa(lp3668
S'PUT'
p3669
a(lp3670
I0
aaa(lp3671
S'COPY'
p3672
a(lp3673
I0
aaa(lp3674
S'LIST'
p3675
a(lp3676
I0
aaa(lp3677
S'POST'
p3678
a(lp3679
I0
aaa(lp3680
S'Metadata'
p3681
a(lp3682
S'SEPDP:Block size 4096:PRF key size 20:PRP key size 16:AE key size 16:years 1:minutes 1312:# challenge blocks 512:# threads 4:Filename ../../test-files/testfile_rand_1048576KB'
p3683
aaa(lp3684
S'Timestamp'
p3685
a(lp3686
I1347572161
aaa(lp3687
S'Block size'
p3688
a(lp3689
I4096
aaa(lp3690
S'PRF key size'
p3691
a(lp3692
I20
aaa(lp3693
S'PRP key size'
p3694
a(lp3695
I16
aaa(lp3696
S'AE key size'
p3697
a(lp3698
I16
aaa(lp3699
S'years'
p3700
a(lp3701
I1
aaa(lp3702
S'minutes'
p3703
a(lp3704
I1312
aaa(lp3705
S'# challenge blocks'
p3706
a(lp3707
I512
aaa(lp3708
S'# threads'
p3709
a(lp3710
I4
aaa(lp3711
g51
a(lp3712
S'1048576'
p3713
aaatRp3714
ag2
((lp3715
(lp3716
S'Get key'
p3717
a(lp3718
F0.023534099999999999
aaa(lp3719
S'Create tag'
p3720
a(lp3721
F0.0034201000000000001
aF0.0034158000000000001
aF0.0036968999999999999
aF0.0035869999999999999
aF0.0036640000000000002
aF0.0036101000000000002
aF0.003588
aF0.0036039000000000002
aF0.0036210999999999999
aF0.0037250999999999999
aaa(lp3722
S'Create challenge'
p3723
a(lp3724
F0.0016201
aF0.001565
aF0.0016029
aF0.0015881000000000001
aF0.0015659000000000001
aF0.0015778999999999999
aF0.0015731
aF0.0016310000000000001
aF0.001668
aF0.0015831
aaa(lp3725
S'Sanitize challenge'
p3726
a(lp3727
F6.1999999999999999e-06
aF0
aF9.9999999999999995e-07
aF0
aF9.9999999999999995e-07
aF0
aF0
aF9.9999999999999995e-07
aF0
aF0
aaa(lp3728
S'Create proof'
p3729
a(lp3730
F0.16345190000000001
aF0.1621928
aF0.161413
aF0.1621349
aF0.16209319999999999
aF0.16219120000000001
aF0.16215399999999999
aF0.16217490000000001
aF0.16205310000000001
aF0.16322900000000001
aaa(lp3731
S'Verify file'
p3732
a(lp3733
F0.0020398999999999999
aF0.0017440000000000001
aF0.0017419
aF0.0017240000000000001
aF0.00174
aF0.0017378000000000001
aF0.0017378000000000001
aF0.0017240000000000001
aF0.0017390000000000001
aF0.0017309000000000001
aaa(lp3734
S'HEAD'
p3735
a(lp3736
I0
aaa(lp3737
S'GET'
p3738
a(lp3739
I0
aaa(lp3740
S'PUT'
p3741
a(lp3742
I0
aaa(lp3743
S'COPY'
p3744
a(lp3745
I0
aaa(lp3746
S'LIST'
p3747
a(lp3748
I0
aaa(lp3749
S'POST'
p3750
a(lp3751
I0
aaa(lp3752
S'Metadata'
p3753
a(lp3754
S'PDP:Block size 16384:PRF key size 20:PRP key size 16:RSA key size 1024:use E-PDP 1:use safe primes 1:# challenges 460:# threads 4:Filename ../../test-files/testfile_rand_2KB'
p3755
aaa(lp3756
S'Timestamp'
p3757
a(lp3758
I1347569660
aaa(lp3759
S'Block size'
p3760
a(lp3761
I16384
aaa(lp3762
S'PRF key size'
p3763
a(lp3764
I20
aaa(lp3765
S'PRP key size'
p3766
a(lp3767
I16
aaa(lp3768
S'RSA key size'
p3769
a(lp3770
I1024
aaa(lp3771
S'use E-PDP'
p3772
a(lp3773
I1
aaa(lp3774
S'use safe primes'
p3775
a(lp3776
I1
aaa(lp3777
S'# challenges'
p3778
a(lp3779
I460
aaa(lp3780
S'# threads'
p3781
a(lp3782
I4
aaa(lp3783
g51
a(lp3784
S'2'
aaatRp3785
ag2
((lp3786
(lp3787
S'Get key'
p3788
a(lp3789
F0.023743899999999998
aaa(lp3790
S'Create tag'
p3791
a(lp3792
F0.0034849999999999998
aF0.0034749999999999998
aF0.0037320000000000001
aF0.0036148999999999999
aF0.0036251999999999999
aF0.0036299000000000001
aF0.0036611999999999999
aF0.0036408999999999999
aF0.0036240000000000001
aF0.0036640000000000002
aaa(lp3793
S'Create challenge'
p3794
a(lp3795
F0.0016339
aF0.0015922
aF0.0015790000000000001
aF0.0016038000000000001
aF0.0015900000000000001
aF0.0016122
aF0.001591
aF0.001601
aF0.0016260000000000001
aF0.0015991
aaa(lp3796
S'Sanitize challenge'
p3797
a(lp3798
F1.9e-06
aF1.1999999999999999e-06
aF0
aF0
aF0
aF0
aF9.9999999999999995e-07
aF0
aF0
aF9.9999999999999995e-07
aaa(lp3799
S'Create proof'
p3800
a(lp3801
F0.1655672
aF0.167239
aF0.1657112
aF0.16634009999999999
aF0.16566900000000001
aF0.16608100000000001
aF0.16641690000000001
aF0.16647100000000001
aF0.165993
aF0.16742589999999999
aaa(lp3802
S'Verify file'
p3803
a(lp3804
F0.0020909000000000001
aF0.0017520999999999999
aF0.001735
aF0.0017290000000000001
aF0.0017369
aF0.0017440000000000001
aF0.00174
aF0.0017271000000000001
aF0.0017359000000000001
aF0.0017331
aaa(lp3805
S'HEAD'
p3806
a(lp3807
I0
aaa(lp3808
S'GET'
p3809
a(lp3810
I0
aaa(lp3811
S'PUT'
p3812
a(lp3813
I0
aaa(lp3814
S'COPY'
p3815
a(lp3816
I0
aaa(lp3817
S'LIST'
p3818
a(lp3819
I0
aaa(lp3820
S'POST'
p3821
a(lp3822
I0
aaa(lp3823
S'Metadata'
p3824
a(lp3825
S'PDP:Block size 16384:PRF key size 20:PRP key size 16:RSA key size 1024:use E-PDP 1:use safe primes 1:# challenges 460:# threads 4:Filename ../../test-files/testfile_rand_4KB'
p3826
aaa(lp3827
S'Timestamp'
p3828
a(lp3829
I1347569662
aaa(lp3830
S'Block size'
p3831
a(lp3832
I16384
aaa(lp3833
S'PRF key size'
p3834
a(lp3835
I20
aaa(lp3836
S'PRP key size'
p3837
a(lp3838
I16
aaa(lp3839
S'RSA key size'
p3840
a(lp3841
I1024
aaa(lp3842
S'use E-PDP'
p3843
a(lp3844
I1
aaa(lp3845
S'use safe primes'
p3846
a(lp3847
I1
aaa(lp3848
S'# challenges'
p3849
a(lp3850
I460
aaa(lp3851
S'# threads'
p3852
a(lp3853
I4
aaa(lp3854
g51
a(lp3855
S'4'
aaatRp3856
ag2
((lp3857
(lp3858
S'Get key'
p3859
a(lp3860
F0.023684
aaa(lp3861
S'Create tag'
p3862
a(lp3863
F0.0034039000000000001
aF0.0034288999999999999
aF0.0042170999999999997
aF0.0036968999999999999
aF0.0035460000000000001
aF0.0035939000000000001
aF0.0035400000000000002
aF0.0036361000000000002
aF0.0035688999999999999
aF0.0035381000000000002
aaa(lp3864
S'Create challenge'
p3865
a(lp3866
F0.0015922
aF0.0015888
aF0.0015912000000000001
aF0.0015897999999999999
aF0.0015991
aF0.0015740000000000001
aF0.001586
aF0.0015759000000000001
aF0.001585
aF0.0015841
aaa(lp3867
S'Sanitize challenge'
p3868
a(lp3869
F2.9000000000000002e-06
aF0
aF1.1999999999999999e-06
aF0
aF9.9999999999999995e-07
aF0
aF9.9999999999999995e-07
aF0
aF0
aF9.9999999999999995e-07
aaa(lp3870
S'Create proof'
p3871
a(lp3872
F0.1712139
aF0.17233709999999999
aF0.171622
aF0.17166999999999999
aF0.17202210000000001
aF0.17128489999999999
aF0.17104510000000001
aF0.17121790000000001
aF0.17154220000000001
aF0.17133000000000001
aaa(lp3873
S'Verify file'
p3874
a(lp3875
F0.0021229
aF0.0017362
aF0.0017231
aF0.0017309000000000001
aF0.0017340000000000001
aF0.0017290000000000001
aF0.0017428000000000001
aF0.0017271000000000001
aF0.001735
aF0.0017209
aaa(lp3876
S'HEAD'
p3877
a(lp3878
I0
aaa(lp3879
S'GET'
p3880
a(lp3881
I0
aaa(lp3882
S'PUT'
p3883
a(lp3884
I0
aaa(lp3885
S'COPY'
p3886
a(lp3887
I0
aaa(lp3888
S'LIST'
p3889
a(lp3890
I0
aaa(lp3891
S'POST'
p3892
a(lp3893
I0
aaa(lp3894
S'Metadata'
p3895
a(lp3896
S'PDP:Block size 16384:PRF key size 20:PRP key size 16:RSA key size 1024:use E-PDP 1:use safe primes 1:# challenges 460:# threads 4:Filename ../../test-files/testfile_rand_8KB'
p3897
aaa(lp3898
S'Timestamp'
p3899
a(lp3900
I1347569664
aaa(lp3901
S'Block size'
p3902
a(lp3903
I16384
aaa(lp3904
S'PRF key size'
p3905
a(lp3906
I20
aaa(lp3907
S'PRP key size'
p3908
a(lp3909
I16
aaa(lp3910
S'RSA key size'
p3911
a(lp3912
I1024
aaa(lp3913
S'use E-PDP'
p3914
a(lp3915
I1
aaa(lp3916
S'use safe primes'
p3917
a(lp3918
I1
aaa(lp3919
S'# challenges'
p3920
a(lp3921
I460
aaa(lp3922
S'# threads'
p3923
a(lp3924
I4
aaa(lp3925
g51
a(lp3926
S'8'
aaatRp3927
ag2
((lp3928
(lp3929
S'Get key'
p3930
a(lp3931
F0.023573899999999998
aaa(lp3932
S'Create tag'
p3933
a(lp3934
F0.0034210999999999998
aF0.0034280000000000001
aF0.0036949999999999999
aF0.0036949999999999999
aF0.0036321000000000001
aF0.0036329999999999999
aF0.0036248999999999999
aF0.0036270999999999999
aF0.0036480000000000002
aF0.0036427999999999999
aaa(lp3935
S'Create challenge'
p3936
a(lp3937
F0.0016301
aF0.001586
aF0.0015941
aF0.0015841
aF0.001585
aF0.0015888
aF0.0015891
aF0.0016391000000000001
aF0.001586
aF0.0016029
aaa(lp3938
S'Sanitize challenge'
p3939
a(lp3940
F1.9e-06
aF1.1999999999999999e-06
aF0
aF9.9999999999999995e-07
aF0
aF9.9999999999999995e-07
aF0
aF0
aF9.9999999999999995e-07
aF0
aaa(lp3941
S'Create proof'
p3942
a(lp3943
F0.182668
aF0.18287300000000001
aF0.18255399999999999
aF0.18221399999999999
aF0.18245410000000001
aF0.18309120000000001
aF0.1824701
aF0.18182110000000001
aF0.18227199999999999
aF0.1829152
aaa(lp3944
S'Verify file'
p3945
a(lp3946
F0.0020958999999999999
aF0.0017369
aF0.0017359000000000001
aF0.0017340000000000001
aF0.0017218999999999999
aF0.0017340000000000001
aF0.0017309000000000001
aF0.0017331
aF0.0017218999999999999
aF0.0017290000000000001
aaa(lp3947
S'HEAD'
p3948
a(lp3949
I0
aaa(lp3950
S'GET'
p3951
a(lp3952
I0
aaa(lp3953
S'PUT'
p3954
a(lp3955
I0
aaa(lp3956
S'COPY'
p3957
a(lp3958
I0
aaa(lp3959
S'LIST'
p3960
a(lp3961
I0
aaa(lp3962
S'POST'
p3963
a(lp3964
I0
aaa(lp3965
S'Metadata'
p3966
a(lp3967
S'PDP:Block size 16384:PRF key size 20:PRP key size 16:RSA key size 1024:use E-PDP 1:use safe primes 1:# challenges 460:# threads 4:Filename ../../test-files/testfile_rand_16KB'
p3968
aaa(lp3969
S'Timestamp'
p3970
a(lp3971
I1347569666
aaa(lp3972
S'Block size'
p3973
a(lp3974
I16384
aaa(lp3975
S'PRF key size'
p3976
a(lp3977
I20
aaa(lp3978
S'PRP key size'
p3979
a(lp3980
I16
aaa(lp3981
S'RSA key size'
p3982
a(lp3983
I1024
aaa(lp3984
S'use E-PDP'
p3985
a(lp3986
I1
aaa(lp3987
S'use safe primes'
p3988
a(lp3989
I1
aaa(lp3990
S'# challenges'
p3991
a(lp3992
I460
aaa(lp3993
S'# threads'
p3994
a(lp3995
I4
aaa(lp3996
g51
a(lp3997
S'16'
p3998
aaatRp3999
ag2
((lp4000
(lp4001
S'Get key'
p4002
a(lp4003
F0.023749800000000001
aaa(lp4004
S'Create tag'
p4005
a(lp4006
F0.0067870999999999999
aF0.0066619000000000001
aF0.0070431000000000001
aF0.0068129999999999996
aF0.0068510000000000003
aF0.0068281000000000001
aF0.0068500000000000002
aF0.0068389999999999996
aF0.0068478999999999996
aF0.0068722000000000002
aaa(lp4007
S'Create challenge'
p4008
a(lp4009
F0.0016279000000000001
aF0.0015762
aF0.001586
aF0.001591
aF0.0016129
aF0.0016072
aF0.0015838
aF0.0015941
aF0.0015891
aF0.0015820999999999999
aaa(lp4010
S'Sanitize challenge'
p4011
a(lp4012
F2.0999999999999998e-06
aF9.9999999999999995e-07
aF0
aF9.9999999999999995e-07
aF0
aF0
aF9.9999999999999995e-07
aF0
aF0
aF0
aaa(lp4013
S'Create proof'
p4014
a(lp4015
F0.18395690000000001
aF0.18253710000000001
aF0.1828408
aF0.1826489
aF0.19573209999999999
aF0.1829469
aF0.1831701
aF0.1833661
aF0.18268699999999999
aF0.18309810000000001
aaa(lp4016
S'Verify file'
p4017
a(lp4018
F0.0021180999999999999
aF0.0017409000000000001
aF0.0017381
aF0.0017381
aF0.0017240000000000001
aF0.001755
aF0.0017409000000000001
aF0.0017381
aF0.0017240000000000001
aF0.0017409000000000001
aaa(lp4019
S'HEAD'
p4020
a(lp4021
I0
aaa(lp4022
S'GET'
p4023
a(lp4024
I0
aaa(lp4025
S'PUT'
p4026
a(lp4027
I0
aaa(lp4028
S'COPY'
p4029
a(lp4030
I0
aaa(lp4031
S'LIST'
p4032
a(lp4033
I0
aaa(lp4034
S'POST'
p4035
a(lp4036
I0
aaa(lp4037
S'Metadata'
p4038
a(lp4039
S'PDP:Block size 16384:PRF key size 20:PRP key size 16:RSA key size 1024:use E-PDP 1:use safe primes 1:# challenges 460:# threads 4:Filename ../../test-files/testfile_rand_32KB'
p4040
aaa(lp4041
S'Timestamp'
p4042
a(lp4043
I1347569669
aaa(lp4044
S'Block size'
p4045
a(lp4046
I16384
aaa(lp4047
S'PRF key size'
p4048
a(lp4049
I20
aaa(lp4050
S'PRP key size'
p4051
a(lp4052
I16
aaa(lp4053
S'RSA key size'
p4054
a(lp4055
I1024
aaa(lp4056
S'use E-PDP'
p4057
a(lp4058
I1
aaa(lp4059
S'use safe primes'
p4060
a(lp4061
I1
aaa(lp4062
S'# challenges'
p4063
a(lp4064
I460
aaa(lp4065
S'# threads'
p4066
a(lp4067
I4
aaa(lp4068
g51
a(lp4069
S'32'
p4070
aaatRp4071
ag2
((lp4072
(lp4073
S'Get key'
p4074
a(lp4075
F0.023678999999999999
aaa(lp4076
S'Create tag'
p4077
a(lp4078
F0.013148099999999999
aF0.0133119
aF0.0134041
aF0.0135601
aF0.0134609
aF0.013218199999999999
aF0.013243
aF0.013221999999999999
aF0.0132561
aF0.0134599
aaa(lp4079
S'Create challenge'
p4080
a(lp4081
F0.001714
aF0.001586
aF0.0015809999999999999
aF0.001585
aF0.0015869
aF0.001632
aF0.0016122
aF0.0015688
aF0.0015862000000000001
aF0.0015809999999999999
aaa(lp4082
S'Sanitize challenge'
p4083
a(lp4084
F2.0999999999999998e-06
aF0
aF9.9999999999999995e-07
aF0
aF9.9999999999999995e-07
aF0
aF9.9999999999999995e-07
aF0
aF9.9999999999999995e-07
aF0
aaa(lp4085
S'Create proof'
p4086
a(lp4087
F0.18351480000000001
aF0.18417910000000001
aF0.1838331
aF0.1833022
aF0.18751409999999999
aF0.1833909
aF0.18334790000000001
aF0.1831081
aF0.18287610000000001
aF0.183064
aaa(lp4088
S'Verify file'
p4089
a(lp4090
F0.0021331000000000002
aF0.0017428000000000001
aF0.0017581000000000001
aF0.0017469
aF0.0021410000000000001
aF0.0017470999999999999
aF0.0017629
aF0.0017539999999999999
aF0.001756
aF0.0018140999999999999
aaa(lp4091
S'HEAD'
p4092
a(lp4093
I0
aaa(lp4094
S'GET'
p4095
a(lp4096
I0
aaa(lp4097
S'PUT'
p4098
a(lp4099
I0
aaa(lp4100
S'COPY'
p4101
a(lp4102
I0
aaa(lp4103
S'LIST'
p4104
a(lp4105
I0
aaa(lp4106
S'POST'
p4107
a(lp4108
I0
aaa(lp4109
S'Metadata'
p4110
a(lp4111
S'PDP:Block size 16384:PRF key size 20:PRP key size 16:RSA key size 1024:use E-PDP 1:use safe primes 1:# challenges 460:# threads 4:Filename ../../test-files/testfile_rand_64KB'
p4112
aaa(lp4113
S'Timestamp'
p4114
a(lp4115
I1347569671
aaa(lp4116
S'Block size'
p4117
a(lp4118
I16384
aaa(lp4119
S'PRF key size'
p4120
a(lp4121
I20
aaa(lp4122
S'PRP key size'
p4123
a(lp4124
I16
aaa(lp4125
S'RSA key size'
p4126
a(lp4127
I1024
aaa(lp4128
S'use E-PDP'
p4129
a(lp4130
I1
aaa(lp4131
S'use safe primes'
p4132
a(lp4133
I1
aaa(lp4134
S'# challenges'
p4135
a(lp4136
I460
aaa(lp4137
S'# threads'
p4138
a(lp4139
I4
aaa(lp4140
g51
a(lp4141
S'64'
p4142
aaatRp4143
ag2
((lp4144
(lp4145
S'Get key'
p4146
a(lp4147
F0.023597
aaa(lp4148
S'Create tag'
p4149
a(lp4150
F0.025964000000000001
aF0.0259671
aF0.026172899999999999
aF0.026117100000000001
aF0.026085899999999999
aF0.026072000000000001
aF0.026081099999999999
aF0.0260279
aF0.026099000000000001
aF0.026301100000000001
aaa(lp4151
S'Create challenge'
p4152
a(lp4153
F0.0016689000000000001
aF0.0015790000000000001
aF0.0015759000000000001
aF0.0015950000000000001
aF0.0015841
aF0.0015669
aF0.001601
aF0.0015740000000000001
aF0.0015790000000000001
aF0.0015929
aaa(lp4154
S'Sanitize challenge'
p4155
a(lp4156
F3.1e-06
aF9.9999999999999995e-07
aF0
aF0
aF9.9999999999999995e-07
aF0
aF9.9999999999999995e-07
aF0
aF0
aF0
aaa(lp4157
S'Create proof'
p4158
a(lp4159
F0.18290190000000001
aF0.183337
aF0.1829741
aF0.18283579999999999
aF0.18378810000000001
aF0.18348410000000001
aF0.18291589999999999
aF0.18289900000000001
aF0.18266109999999999
aF0.18343000000000001
aaa(lp4160
S'Verify file'
p4161
a(lp4162
F0.0021078999999999998
aF0.0017960000000000001
aF0.0017799999999999999
aF0.0017951
aF0.001786
aF0.0017941000000000001
aF0.0017899999999999999
aF0.0017779
aF0.0017930999999999999
aF0.0017829
aaa(lp4163
S'HEAD'
p4164
a(lp4165
I0
aaa(lp4166
S'GET'
p4167
a(lp4168
I0
aaa(lp4169
S'PUT'
p4170
a(lp4171
I0
aaa(lp4172
S'COPY'
p4173
a(lp4174
I0
aaa(lp4175
S'LIST'
p4176
a(lp4177
I0
aaa(lp4178
S'POST'
p4179
a(lp4180
I0
aaa(lp4181
S'Metadata'
p4182
a(lp4183
S'PDP:Block size 16384:PRF key size 20:PRP key size 16:RSA key size 1024:use E-PDP 1:use safe primes 1:# challenges 460:# threads 4:Filename ../../test-files/testfile_rand_128KB'
p4184
aaa(lp4185
S'Timestamp'
p4186
a(lp4187
I1347569674
aaa(lp4188
S'Block size'
p4189
a(lp4190
I16384
aaa(lp4191
S'PRF key size'
p4192
a(lp4193
I20
aaa(lp4194
S'PRP key size'
p4195
a(lp4196
I16
aaa(lp4197
S'RSA key size'
p4198
a(lp4199
I1024
aaa(lp4200
S'use E-PDP'
p4201
a(lp4202
I1
aaa(lp4203
S'use safe primes'
p4204
a(lp4205
I1
aaa(lp4206
S'# challenges'
p4207
a(lp4208
I460
aaa(lp4209
S'# threads'
p4210
a(lp4211
I4
aaa(lp4212
g51
a(lp4213
S'128'
p4214
aaatRp4215
ag2
((lp4216
(lp4217
S'Get key'
p4218
a(lp4219
F0.023689000000000002
aaa(lp4220
S'Create tag'
p4221
a(lp4222
F0.051843899999999998
aF0.051589000000000003
aF0.052296200000000001
aF0.051796000000000002
aF0.051688900000000003
aF0.051799100000000001
aF0.051922099999999999
aF0.051925899999999997
aF0.051721099999999999
aF0.0516748
aaa(lp4223
S'Create challenge'
p4224
a(lp4225
F0.0016661
aF0.0015891
aF0.0015869
aF0.001585
aF0.0015681
aF0.0015790000000000001
aF0.0015719
aF0.0015812000000000001
aF0.0015828999999999999
aF0.0016360000000000001
aaa(lp4226
S'Sanitize challenge'
p4227
a(lp4228
F1.9e-06
aF9.9999999999999995e-07
aF0
aF9.9999999999999995e-07
aF0
aF1.1999999999999999e-06
aF0
aF9.9999999999999995e-07
aF0
aF0
aaa(lp4229
S'Create proof'
p4230
a(lp4231
F0.18349099999999999
aF0.18516299999999999
aF0.18292310000000001
aF0.18413309999999999
aF0.18412899999999999
aF0.18421100000000001
aF0.18398999999999999
aF0.18404219999999999
aF0.18409490000000001
aF0.18417600000000001
aaa(lp4232
S'Verify file'
p4233
a(lp4234
F0.0022599999999999999
aF0.0018680000000000001
aF0.0018829999999999999
aF0.001879
aF0.0018779999999999999
aF0.0018569999999999999
aF0.0018749000000000001
aF0.0018799000000000001
aF0.0018752
aF0.0018649000000000001
aaa(lp4235
S'HEAD'
p4236
a(lp4237
I0
aaa(lp4238
S'GET'
p4239
a(lp4240
I0
aaa(lp4241
S'PUT'
p4242
a(lp4243
I0
aaa(lp4244
S'COPY'
p4245
a(lp4246
I0
aaa(lp4247
S'LIST'
p4248
a(lp4249
I0
aaa(lp4250
S'POST'
p4251
a(lp4252
I0
aaa(lp4253
S'Metadata'
p4254
a(lp4255
S'PDP:Block size 16384:PRF key size 20:PRP key size 16:RSA key size 1024:use E-PDP 1:use safe primes 1:# challenges 460:# threads 4:Filename ../../test-files/testfile_rand_256KB'
p4256
aaa(lp4257
S'Timestamp'
p4258
a(lp4259
I1347569677
aaa(lp4260
S'Block size'
p4261
a(lp4262
I16384
aaa(lp4263
S'PRF key size'
p4264
a(lp4265
I20
aaa(lp4266
S'PRP key size'
p4267
a(lp4268
I16
aaa(lp4269
S'RSA key size'
p4270
a(lp4271
I1024
aaa(lp4272
S'use E-PDP'
p4273
a(lp4274
I1
aaa(lp4275
S'use safe primes'
p4276
a(lp4277
I1
aaa(lp4278
S'# challenges'
p4279
a(lp4280
I460
aaa(lp4281
S'# threads'
p4282
a(lp4283
I4
aaa(lp4284
g51
a(lp4285
S'256'
p4286
aaatRp4287
ag2
((lp4288
(lp4289
S'Get key'
p4290
a(lp4291
F0.023687099999999999
aaa(lp4292
S'Create tag'
p4293
a(lp4294
F0.103107
aF0.102968
aF0.10256410000000001
aF0.102432
aF0.1023078
aF0.103986
aF0.10263990000000001
aF0.102844
aF0.1028712
aF0.10261199999999999
aaa(lp4295
S'Create challenge'
p4296
a(lp4297
F0.0016501
aF0.0015790000000000001
aF0.0015891
aF0.0015628
aF0.0015931000000000001
aF0.0015781
aF0.001565
aF0.0015728000000000001
aF0.0015571000000000001
aF0.0015728000000000001
aaa(lp4298
S'Sanitize challenge'
p4299
a(lp4300
F7.9000000000000006e-06
aF9.9999999999999995e-07
aF0
aF1.1999999999999999e-06
aF0
aF9.9999999999999995e-07
aF0
aF0
aF9.9999999999999995e-07
aF0
aaa(lp4301
S'Create proof'
p4302
a(lp4303
F0.18338889999999999
aF0.18463589999999999
aF0.18382000000000001
aF0.18440390000000001
aF0.18448110000000001
aF0.18431400000000001
aF0.1847811
aF0.18476509999999999
aF0.184443
aF0.18525700000000001
aaa(lp4304
S'Verify file'
p4305
a(lp4306
F0.0020260999999999999
aF0.0020010000000000002
aF0.0020049
aF0.0020119999999999999
aF0.0020000999999999999
aF0.0019970000000000001
aF0.0019959999999999999
aF0.0019959999999999999
aF0.0020008000000000001
aF0.0020070000000000001
aaa(lp4307
S'HEAD'
p4308
a(lp4309
I0
aaa(lp4310
S'GET'
p4311
a(lp4312
I0
aaa(lp4313
S'PUT'
p4314
a(lp4315
I0
aaa(lp4316
S'COPY'
p4317
a(lp4318
I0
aaa(lp4319
S'LIST'
p4320
a(lp4321
I0
aaa(lp4322
S'POST'
p4323
a(lp4324
I0
aaa(lp4325
S'Metadata'
p4326
a(lp4327
S'PDP:Block size 16384:PRF key size 20:PRP key size 16:RSA key size 1024:use E-PDP 1:use safe primes 1:# challenges 460:# threads 4:Filename ../../test-files/testfile_rand_512KB'
p4328
aaa(lp4329
S'Timestamp'
p4330
a(lp4331
I1347569680
aaa(lp4332
S'Block size'
p4333
a(lp4334
I16384
aaa(lp4335
S'PRF key size'
p4336
a(lp4337
I20
aaa(lp4338
S'PRP key size'
p4339
a(lp4340
I16
aaa(lp4341
S'RSA key size'
p4342
a(lp4343
I1024
aaa(lp4344
S'use E-PDP'
p4345
a(lp4346
I1
aaa(lp4347
S'use safe primes'
p4348
a(lp4349
I1
aaa(lp4350
S'# challenges'
p4351
a(lp4352
I460
aaa(lp4353
S'# threads'
p4354
a(lp4355
I4
aaa(lp4356
g51
a(lp4357
S'512'
p4358
aaatRp4359
ag2
((lp4360
(lp4361
S'Get key'
p4362
a(lp4363
F0.023751999999999999
aaa(lp4364
S'Create tag'
p4365
a(lp4366
F0.20304610000000001
aF0.20313310000000001
aF0.20697280000000001
aF0.20391509999999999
aF0.20526910000000001
aF0.203541
aF0.20328280000000001
aF0.203208
aF0.203377
aF0.30203600000000003
aaa(lp4367
S'Create challenge'
p4368
a(lp4369
F0.0016601000000000001
aF0.0015819
aF0.0015841
aF0.0016129
aF0.0015991
aF0.0015831
aF0.001596
aF0.0015778999999999999
aF0.0015820999999999999
aF0.0015709000000000001
aaa(lp4370
S'Sanitize challenge'
p4371
a(lp4372
F8.1000000000000004e-06
aF0
aF9.9999999999999995e-07
aF0
aF9.9999999999999995e-07
aF0
aF0
aF0
aF0
aF0
aaa(lp4373
S'Create proof'
p4374
a(lp4375
F0.18718290000000001
aF0.1867771
aF0.187058
aF0.18712500000000001
aF0.18693709999999999
aF0.18761520000000001
aF0.18663289999999999
aF0.18962100000000001
aF0.1871622
aF0.18706320000000001
aaa(lp4376
S'Verify file'
p4377
a(lp4378
F0.0022978999999999999
aF0.0022821
aF0.0022650000000000001
aF0.0022918999999999999
aF0.0022650000000000001
aF0.002284
aF0.0022561999999999999
aF0.0022669000000000001
aF0.0023019
aF0.0022612000000000001
aaa(lp4379
S'HEAD'
p4380
a(lp4381
I0
aaa(lp4382
S'GET'
p4383
a(lp4384
I0
aaa(lp4385
S'PUT'
p4386
a(lp4387
I0
aaa(lp4388
S'COPY'
p4389
a(lp4390
I0
aaa(lp4391
S'LIST'
p4392
a(lp4393
I0
aaa(lp4394
S'POST'
p4395
a(lp4396
I0
aaa(lp4397
S'Metadata'
p4398
a(lp4399
S'PDP:Block size 16384:PRF key size 20:PRP key size 16:RSA key size 1024:use E-PDP 1:use safe primes 1:# challenges 460:# threads 4:Filename ../../test-files/testfile_rand_1024KB'
p4400
aaa(lp4401
S'Timestamp'
p4402
a(lp4403
I1347569685
aaa(lp4404
S'Block size'
p4405
a(lp4406
I16384
aaa(lp4407
S'PRF key size'
p4408
a(lp4409
I20
aaa(lp4410
S'PRP key size'
p4411
a(lp4412
I16
aaa(lp4413
S'RSA key size'
p4414
a(lp4415
I1024
aaa(lp4416
S'use E-PDP'
p4417
a(lp4418
I1
aaa(lp4419
S'use safe primes'
p4420
a(lp4421
I1
aaa(lp4422
S'# challenges'
p4423
a(lp4424
I460
aaa(lp4425
S'# threads'
p4426
a(lp4427
I4
aaa(lp4428
g51
a(lp4429
S'1024'
p4430
aaatRp4431
ag2
((lp4432
(lp4433
S'Get key'
p4434
a(lp4435
F0.023643000000000001
aaa(lp4436
S'Create tag'
p4437
a(lp4438
F0.40502379999999999
aF0.40632410000000002
aF0.40628599999999998
aF0.40489700000000001
aF0.404192
aF0.4053988
aF0.40512609999999999
aF0.405524
aF0.40515709999999999
aF0.40568399999999999
aaa(lp4439
S'Create challenge'
p4440
a(lp4441
F0.0016768
aF0.0015922
aF0.0015878999999999999
aF0.001627
aF0.0015891
aF0.0015881000000000001
aF0.0016459999999999999
aF0.0015950000000000001
aF0.001585
aF0.0015759000000000001
aaa(lp4442
S'Sanitize challenge'
p4443
a(lp4444
F8.1000000000000004e-06
aF0
aF0
aF0
aF9.9999999999999995e-07
aF0
aF1.1999999999999999e-06
aF0
aF0
aF9.9999999999999995e-07
aaa(lp4445
S'Create proof'
p4446
a(lp4447
F0.1931629
aF0.193464
aF0.19339700000000001
aF0.1931319
aF0.19323709999999999
aF0.1930492
aF0.19319800000000001
aF0.193248
aF0.19331499999999999
aF0.1933532
aaa(lp4448
S'Verify file'
p4449
a(lp4450
F0.0028441
aF0.0027927999999999998
aF0.0027950000000000002
aF0.0027789999999999998
aF0.0028181
aF0.0028129000000000001
aF0.0027802
aF0.002794
aF0.0028498
aF0.0027989999999999998
aaa(lp4451
S'HEAD'
p4452
a(lp4453
I0
aaa(lp4454
S'GET'
p4455
a(lp4456
I0
aaa(lp4457
S'PUT'
p4458
a(lp4459
I0
aaa(lp4460
S'COPY'
p4461
a(lp4462
I0
aaa(lp4463
S'LIST'
p4464
a(lp4465
I0
aaa(lp4466
S'POST'
p4467
a(lp4468
I0
aaa(lp4469
S'Metadata'
p4470
a(lp4471
S'PDP:Block size 16384:PRF key size 20:PRP key size 16:RSA key size 1024:use E-PDP 1:use safe primes 1:# challenges 460:# threads 4:Filename ../../test-files/testfile_rand_2048KB'
p4472
aaa(lp4473
S'Timestamp'
p4474
a(lp4475
I1347569692
aaa(lp4476
S'Block size'
p4477
a(lp4478
I16384
aaa(lp4479
S'PRF key size'
p4480
a(lp4481
I20
aaa(lp4482
S'PRP key size'
p4483
a(lp4484
I16
aaa(lp4485
S'RSA key size'
p4486
a(lp4487
I1024
aaa(lp4488
S'use E-PDP'
p4489
a(lp4490
I1
aaa(lp4491
S'use safe primes'
p4492
a(lp4493
I1
aaa(lp4494
S'# challenges'
p4495
a(lp4496
I460
aaa(lp4497
S'# threads'
p4498
a(lp4499
I4
aaa(lp4500
g51
a(lp4501
S'2048'
p4502
aaatRp4503
ag2
((lp4504
(lp4505
S'Get key'
p4506
a(lp4507
F0.023749800000000001
aaa(lp4508
S'Create tag'
p4509
a(lp4510
F0.80619600000000002
aF0.80629399999999996
aF0.81021900000000002
aF0.80906109999999998
aF0.80777500000000002
aF0.80862000000000001
aF0.80751419999999996
aF0.80790879999999998
aF0.80626819999999999
aF0.80909299999999995
aaa(lp4511
S'Create challenge'
p4512
a(lp4513
F0.0017240000000000001
aF0.0015979
aF0.0016451
aF0.001586
aF0.0016069000000000001
aF0.0016029
aF0.0015931000000000001
aF0.0016379000000000001
aF0.0015900000000000001
aF0.0016149999999999999
aaa(lp4514
S'Sanitize challenge'
p4515
a(lp4516
F8.1000000000000004e-06
aF9.9999999999999995e-07
aF9.9999999999999995e-07
aF0
aF0
aF0
aF0
aF1.1999999999999999e-06
aF0
aF0
aaa(lp4517
S'Create proof'
p4518
a(lp4519
F0.21441199999999999
aF0.2149141
aF0.21409110000000001
aF0.21404409999999999
aF0.21385499999999999
aF0.213752
aF0.2140579
aF0.2143629
aF0.21434310000000001
aF0.2145059
aaa(lp4520
S'Verify file'
p4521
a(lp4522
F0.0039319999999999997
aF0.0038769
aF0.0038841000000000001
aF0.0038847999999999999
aF0.0038991
aF0.0038828999999999999
aF0.0038861999999999998
aF0.0038947999999999999
aF0.0038879000000000001
aF0.0038809999999999999
aaa(lp4523
S'HEAD'
p4524
a(lp4525
I0
aaa(lp4526
S'GET'
p4527
a(lp4528
I0
aaa(lp4529
S'PUT'
p4530
a(lp4531
I0
aaa(lp4532
S'COPY'
p4533
a(lp4534
I0
aaa(lp4535
S'LIST'
p4536
a(lp4537
I0
aaa(lp4538
S'POST'
p4539
a(lp4540
I0
aaa(lp4541
S'Metadata'
p4542
a(lp4543
S'PDP:Block size 16384:PRF key size 20:PRP key size 16:RSA key size 1024:use E-PDP 1:use safe primes 1:# challenges 460:# threads 4:Filename ../../test-files/testfile_rand_4096KB'
p4544
aaa(lp4545
S'Timestamp'
p4546
a(lp4547
I1347569704
aaa(lp4548
S'Block size'
p4549
a(lp4550
I16384
aaa(lp4551
S'PRF key size'
p4552
a(lp4553
I20
aaa(lp4554
S'PRP key size'
p4555
a(lp4556
I16
aaa(lp4557
S'RSA key size'
p4558
a(lp4559
I1024
aaa(lp4560
S'use E-PDP'
p4561
a(lp4562
I1
aaa(lp4563
S'use safe primes'
p4564
a(lp4565
I1
aaa(lp4566
S'# challenges'
p4567
a(lp4568
I460
aaa(lp4569
S'# threads'
p4570
a(lp4571
I4
aaa(lp4572
g51
a(lp4573
S'4096'
p4574
aaatRp4575
ag2
((lp4576
(lp4577
S'Get key'
p4578
a(lp4579
F0.023607
aaa(lp4580
S'Create tag'
p4581
a(lp4582
F1.6131849
aF1.6125779
aF1.6125872000000001
aF1.6274559
aF1.6270138999999999
aF1.6326780000000001
aF1.6113591
aF1.6133858999999999
aF1.6127
aF1.6123281
aaa(lp4583
S'Create challenge'
p4584
a(lp4585
F0.0017118000000000001
aF0.0015972
aF0.0015919
aF0.001637
aF0.0015891
aF0.0015929
aF0.0015972
aF0.0015969000000000001
aF0.0016169999999999999
aF0.0015881000000000001
aaa(lp4586
S'Sanitize challenge'
p4587
a(lp4588
F7.9000000000000006e-06
aF9.9999999999999995e-07
aF1.1999999999999999e-06
aF0
aF0
aF9.9999999999999995e-07
aF0
aF9.9999999999999995e-07
aF0
aF0
aaa(lp4589
S'Create proof'
p4590
a(lp4591
F0.27534320000000001
aF0.27494289999999999
aF0.2748179
aF0.27793499999999999
aF0.280422
aF0.278198
aF0.27842
aF0.27397110000000002
aF0.27370719999999998
aF0.2727909
aaa(lp4592
S'Verify file'
p4593
a(lp4594
F0.0058850999999999999
aF0.0056369000000000002
aF0.0058401
aF0.0055760999999999996
aF0.0055678000000000004
aF0.0055642
aF0.0055818999999999999
aF0.0055760999999999996
aF0.0056268999999999998
aF0.0055702
aaa(lp4595
S'HEAD'
p4596
a(lp4597
I0
aaa(lp4598
S'GET'
p4599
a(lp4600
I0
aaa(lp4601
S'PUT'
p4602
a(lp4603
I0
aaa(lp4604
S'COPY'
p4605
a(lp4606
I0
aaa(lp4607
S'LIST'
p4608
a(lp4609
I0
aaa(lp4610
S'POST'
p4611
a(lp4612
I0
aaa(lp4613
S'Metadata'
p4614
a(lp4615
S'PDP:Block size 16384:PRF key size 20:PRP key size 16:RSA key size 1024:use E-PDP 1:use safe primes 1:# challenges 460:# threads 4:Filename ../../test-files/testfile_rand_8192KB'
p4616
aaa(lp4617
S'Timestamp'
p4618
a(lp4619
I1347569725
aaa(lp4620
S'Block size'
p4621
a(lp4622
I16384
aaa(lp4623
S'PRF key size'
p4624
a(lp4625
I20
aaa(lp4626
S'PRP key size'
p4627
a(lp4628
I16
aaa(lp4629
S'RSA key size'
p4630
a(lp4631
I1024
aaa(lp4632
S'use E-PDP'
p4633
a(lp4634
I1
aaa(lp4635
S'use safe primes'
p4636
a(lp4637
I1
aaa(lp4638
S'# challenges'
p4639
a(lp4640
I460
aaa(lp4641
S'# threads'
p4642
a(lp4643
I4
aaa(lp4644
g51
a(lp4645
S'8192'
p4646
aaatRp4647
ag2
((lp4648
(lp4649
S'Get key'
p4650
a(lp4651
F0.0236139
aaa(lp4652
S'Create tag'
p4653
a(lp4654
F3.2161059000000001
aF3.2183839999999999
aF3.2330779999999999
aF3.2322101999999999
aF3.2223921
aF3.2039599000000001
aF3.2005811
aF3.2092508999999998
aF3.2156429000000002
aF3.2183909000000002
aaa(lp4655
S'Create challenge'
p4656
a(lp4657
F0.001627
aF0.0016029
aF0.0015931000000000001
aF0.0015769
aF0.0016620000000000001
aF0.0016201
aF0.0015769
aF0.0015891
aF0.0015900000000000001
aF0.00158
aaa(lp4658
S'Sanitize challenge'
p4659
a(lp4660
F1.19e-05
aF9.9999999999999995e-07
aF0
aF1.1999999999999999e-06
aF0
aF9.9999999999999995e-07
aF0
aF9.9999999999999995e-07
aF0
aF0
aaa(lp4661
S'Create proof'
p4662
a(lp4663
F0.2743931
aF0.27881909999999999
aF0.27486300000000002
aF0.27645019999999998
aF0.27414919999999998
aF0.27449079999999998
aF0.27359889999999998
aF0.27420309999999998
aF0.27339479999999999
aF0.27474690000000002
aaa(lp4664
S'Verify file'
p4665
a(lp4666
F0.0056960999999999999
aF0.0056519999999999999
aF0.0059480999999999996
aF0.00596
aF0.0056278999999999999
aF0.0056950999999999998
aF0.0057219999999999997
aF0.0056150000000000002
aF0.0056109000000000003
aF0.0056280999999999996
aaa(lp4667
S'HEAD'
p4668
a(lp4669
I0
aaa(lp4670
S'GET'
p4671
a(lp4672
I0
aaa(lp4673
S'PUT'
p4674
a(lp4675
I0
aaa(lp4676
S'COPY'
p4677
a(lp4678
I0
aaa(lp4679
S'LIST'
p4680
a(lp4681
I0
aaa(lp4682
S'POST'
p4683
a(lp4684
I0
aaa(lp4685
S'Metadata'
p4686
a(lp4687
S'PDP:Block size 16384:PRF key size 20:PRP key size 16:RSA key size 1024:use E-PDP 1:use safe primes 1:# challenges 460:# threads 4:Filename ../../test-files/testfile_rand_16384KB'
p4688
aaa(lp4689
S'Timestamp'
p4690
a(lp4691
I1347569764
aaa(lp4692
S'Block size'
p4693
a(lp4694
I16384
aaa(lp4695
S'PRF key size'
p4696
a(lp4697
I20
aaa(lp4698
S'PRP key size'
p4699
a(lp4700
I16
aaa(lp4701
S'RSA key size'
p4702
a(lp4703
I1024
aaa(lp4704
S'use E-PDP'
p4705
a(lp4706
I1
aaa(lp4707
S'use safe primes'
p4708
a(lp4709
I1
aaa(lp4710
S'# challenges'
p4711
a(lp4712
I460
aaa(lp4713
S'# threads'
p4714
a(lp4715
I4
aaa(lp4716
g51
a(lp4717
S'16384'
p4718
aaatRp4719
ag2
((lp4720
(lp4721
S'Get key'
p4722
a(lp4723
F0.023892900000000002
aaa(lp4724
S'Create tag'
p4725
a(lp4726
F6.4401280999999999
aF6.4359979999999997
aF6.4520949999999999
aF6.454447
aF6.4432871
aF6.4313769000000001
aF6.4418430000000004
aF6.4709861000000002
aF6.4518789999999999
aF6.4433550999999998
aaa(lp4727
S'Create challenge'
p4728
a(lp4729
F0.0017849999999999999
aF0.001596
aF0.0015979
aF0.0016179
aF0.0016050000000000001
aF0.0015900000000000001
aF0.0015891
aF0.0015979
aF0.0016451
aF0.0016050000000000001
aaa(lp4730
S'Sanitize challenge'
p4731
a(lp4732
F7.9000000000000006e-06
aF0
aF1.1999999999999999e-06
aF0
aF9.9999999999999995e-07
aF0
aF9.9999999999999995e-07
aF0
aF0
aF9.9999999999999995e-07
aaa(lp4733
S'Create proof'
p4734
a(lp4735
F0.27469090000000002
aF0.27496599999999999
aF0.27518819999999999
aF0.27317000000000002
aF0.27409909999999998
aF0.27280310000000002
aF0.27518890000000001
aF0.27346300000000001
aF0.27378920000000001
aF0.273067
aaa(lp4736
S'Verify file'
p4737
a(lp4738
F0.0056169000000000002
aF0.0056189999999999999
aF0.0055890000000000002
aF0.0055729999999999998
aF0.0062160000000000002
aF0.0055849999999999997
aF0.0055830000000000003
aF0.0055718
aF0.0057051000000000003
aF0.0055989999999999998
aaa(lp4739
S'HEAD'
p4740
a(lp4741
I0
aaa(lp4742
S'GET'
p4743
a(lp4744
I0
aaa(lp4745
S'PUT'
p4746
a(lp4747
I0
aaa(lp4748
S'COPY'
p4749
a(lp4750
I0
aaa(lp4751
S'LIST'
p4752
a(lp4753
I0
aaa(lp4754
S'POST'
p4755
a(lp4756
I0
aaa(lp4757
S'Metadata'
p4758
a(lp4759
S'PDP:Block size 16384:PRF key size 20:PRP key size 16:RSA key size 1024:use E-PDP 1:use safe primes 1:# challenges 460:# threads 4:Filename ../../test-files/testfile_rand_32768KB'
p4760
aaa(lp4761
S'Timestamp'
p4762
a(lp4763
I1347569839
aaa(lp4764
S'Block size'
p4765
a(lp4766
I16384
aaa(lp4767
S'PRF key size'
p4768
a(lp4769
I20
aaa(lp4770
S'PRP key size'
p4771
a(lp4772
I16
aaa(lp4773
S'RSA key size'
p4774
a(lp4775
I1024
aaa(lp4776
S'use E-PDP'
p4777
a(lp4778
I1
aaa(lp4779
S'use safe primes'
p4780
a(lp4781
I1
aaa(lp4782
S'# challenges'
p4783
a(lp4784
I460
aaa(lp4785
S'# threads'
p4786
a(lp4787
I4
aaa(lp4788
g51
a(lp4789
S'32768'
p4790
aaatRp4791
ag2
((lp4792
(lp4793
S'Get key'
p4794
a(lp4795
F0.023772000000000001
aaa(lp4796
S'Create tag'
p4797
a(lp4798
F12.858597
aF12.870469999999999
aF12.8622751
aF12.8933129
aF12.8730171
aF12.8622589
aF12.8586092
aF12.8710849
aF12.8702831
aF12.876054
aaa(lp4799
S'Create challenge'
p4800
a(lp4801
F0.0016429000000000001
aF0.0017149000000000001
aF0.001766
aF0.0017750000000000001
aF0.0015878999999999999
aF0.0015931000000000001
aF0.0015891
aF0.0015929
aF0.0015740000000000001
aF0.0015919
aaa(lp4802
S'Sanitize challenge'
p4803
a(lp4804
F6.0000000000000002e-06
aF0
aF9.9999999999999995e-07
aF0
aF9.9999999999999995e-07
aF0
aF0
aF9.9999999999999995e-07
aF0
aF9.9999999999999995e-07
aaa(lp4805
S'Create proof'
p4806
a(lp4807
F0.27436300000000002
aF0.2773139
aF0.27439000000000002
aF0.27556510000000001
aF0.27341789999999999
aF0.2733641
aF0.27325389999999999
aF0.27416400000000002
aF0.27406599999999998
aF0.27362300000000001
aaa(lp4808
S'Verify file'
p4809
a(lp4810
F0.0056058999999999996
aF0.0055830000000000003
aF0.0055630000000000002
aF0.0055840000000000004
aF0.005568
aF0.0055721
aF0.0055779999999999996
aF0.0055558999999999999
aF0.0055871000000000002
aF0.0055621000000000004
aaa(lp4811
S'HEAD'
p4812
a(lp4813
I0
aaa(lp4814
S'GET'
p4815
a(lp4816
I0
aaa(lp4817
S'PUT'
p4818
a(lp4819
I0
aaa(lp4820
S'COPY'
p4821
a(lp4822
I0
aaa(lp4823
S'LIST'
p4824
a(lp4825
I0
aaa(lp4826
S'POST'
p4827
a(lp4828
I0
aaa(lp4829
S'Metadata'
p4830
a(lp4831
S'PDP:Block size 16384:PRF key size 20:PRP key size 16:RSA key size 1024:use E-PDP 1:use safe primes 1:# challenges 460:# threads 4:Filename ../../test-files/testfile_rand_65536KB'
p4832
aaa(lp4833
S'Timestamp'
p4834
a(lp4835
I1347569985
aaa(lp4836
S'Block size'
p4837
a(lp4838
I16384
aaa(lp4839
S'PRF key size'
p4840
a(lp4841
I20
aaa(lp4842
S'PRP key size'
p4843
a(lp4844
I16
aaa(lp4845
S'RSA key size'
p4846
a(lp4847
I1024
aaa(lp4848
S'use E-PDP'
p4849
a(lp4850
I1
aaa(lp4851
S'use safe primes'
p4852
a(lp4853
I1
aaa(lp4854
S'# challenges'
p4855
a(lp4856
I460
aaa(lp4857
S'# threads'
p4858
a(lp4859
I4
aaa(lp4860
g51
a(lp4861
S'65536'
p4862
aaatRp4863
ag2
((lp4864
(lp4865
S'Get key'
p4866
a(lp4867
F0.023704099999999999
aaa(lp4868
S'Create tag'
p4869
a(lp4870
F25.7889719
aF25.836224999999999
aF25.864402999999999
aF25.8446341
aF25.839693100000002
aF25.802177
aF25.903572100000002
aF25.781978800000001
aF25.809085100000001
aF25.769525999999999
aaa(lp4871
S'Create challenge'
p4872
a(lp4873
F0.0016608
aF0.001647
aF0.0017440000000000001
aF0.001673
aF0.0015869
aF0.001673
aF0.001596
aF0.0015781
aF0.001575
aF0.0015769
aaa(lp4874
S'Sanitize challenge'
p4875
a(lp4876
F2.0999999999999998e-06
aF9.9999999999999995e-07
aF0
aF9.9999999999999995e-07
aF0
aF0
aF0
aF0
aF9.9999999999999995e-07
aF0
aaa(lp4877
S'Create proof'
p4878
a(lp4879
F0.27486300000000002
aF0.27484579999999997
aF0.273864
aF0.27709889999999998
aF0.27934120000000001
aF0.2727909
aF0.27314620000000001
aF0.273088
aF0.27438119999999999
aF0.27422089999999999
aaa(lp4880
S'Verify file'
p4881
a(lp4882
F0.0056671999999999998
aF0.0056188000000000002
aF0.0056372000000000002
aF0.0056018999999999999
aF0.0055849999999999997
aF0.0055770999999999998
aF0.0058520000000000004
aF0.0056071000000000003
aF0.0056350000000000003
aF0.0056679
aaa(lp4883
S'HEAD'
p4884
a(lp4885
I0
aaa(lp4886
S'GET'
p4887
a(lp4888
I0
aaa(lp4889
S'PUT'
p4890
a(lp4891
I0
aaa(lp4892
S'COPY'
p4893
a(lp4894
I0
aaa(lp4895
S'LIST'
p4896
a(lp4897
I0
aaa(lp4898
S'POST'
p4899
a(lp4900
I0
aaa(lp4901
S'Metadata'
p4902
a(lp4903
S'PDP:Block size 16384:PRF key size 20:PRP key size 16:RSA key size 1024:use E-PDP 1:use safe primes 1:# challenges 460:# threads 4:Filename ../../test-files/testfile_rand_131072KB'
p4904
aaa(lp4905
S'Timestamp'
p4906
a(lp4907
I1347570275
aaa(lp4908
S'Block size'
p4909
a(lp4910
I16384
aaa(lp4911
S'PRF key size'
p4912
a(lp4913
I20
aaa(lp4914
S'PRP key size'
p4915
a(lp4916
I16
aaa(lp4917
S'RSA key size'
p4918
a(lp4919
I1024
aaa(lp4920
S'use E-PDP'
p4921
a(lp4922
I1
aaa(lp4923
S'use safe primes'
p4924
a(lp4925
I1
aaa(lp4926
S'# challenges'
p4927
a(lp4928
I460
aaa(lp4929
S'# threads'
p4930
a(lp4931
I4
aaa(lp4932
g51
a(lp4933
S'131072'
p4934
aaatRp4935
ag2
((lp4936
(lp4937
S'Get key'
p4938
a(lp4939
F0.024659199999999999
aaa(lp4940
S'Create tag'
p4941
a(lp4942
F51.511001100000001
aF51.554265999999998
aF51.584311
aF51.527828900000003
aF51.521492000000002
aF51.566480900000002
aF51.560505200000001
aF51.587353899999997
aF51.575761999999997
aF51.582380999999998
aaa(lp4943
S'Create challenge'
p4944
a(lp4945
F0.0016599
aF0.0016031000000000001
aF0.0015740000000000001
aF0.0016329000000000001
aF0.0016509999999999999
aF0.001586
aF0.001606
aF0.0015790000000000001
aF0.0016279000000000001
aF0.0016091
aaa(lp4946
S'Sanitize challenge'
p4947
a(lp4948
F1.9e-06
aF1.1999999999999999e-06
aF0
aF0
aF0
aF0
aF9.9999999999999995e-07
aF0
aF9.9999999999999995e-07
aF0
aaa(lp4949
S'Create proof'
p4950
a(lp4951
F0.27498909999999999
aF0.2776151
aF0.274729
aF0.27628209999999997
aF0.2737501
aF0.27555800000000003
aF0.27404119999999998
aF0.27519080000000001
aF0.27498790000000001
aF0.27323510000000001
aaa(lp4952
S'Verify file'
p4953
a(lp4954
F0.0055808999999999997
aF0.0055439
aF0.0055490000000000001
aF0.0055491999999999998
aF0.0055827999999999997
aF0.0055881000000000004
aF0.0055439
aF0.0056882
aF0.0055389000000000002
aF0.0056268999999999998
aaa(lp4955
S'HEAD'
p4956
a(lp4957
I0
aaa(lp4958
S'GET'
p4959
a(lp4960
I0
aaa(lp4961
S'PUT'
p4962
a(lp4963
I0
aaa(lp4964
S'COPY'
p4965
a(lp4966
I0
aaa(lp4967
S'LIST'
p4968
a(lp4969
I0
aaa(lp4970
S'POST'
p4971
a(lp4972
I0
aaa(lp4973
S'Metadata'
p4974
a(lp4975
S'PDP:Block size 16384:PRF key size 20:PRP key size 16:RSA key size 1024:use E-PDP 1:use safe primes 1:# challenges 460:# threads 4:Filename ../../test-files/testfile_rand_262144KB'
p4976
aaa(lp4977
S'Timestamp'
p4978
a(lp4979
I1347570847
aaa(lp4980
S'Block size'
p4981
a(lp4982
I16384
aaa(lp4983
S'PRF key size'
p4984
a(lp4985
I20
aaa(lp4986
S'PRP key size'
p4987
a(lp4988
I16
aaa(lp4989
S'RSA key size'
p4990
a(lp4991
I1024
aaa(lp4992
S'use E-PDP'
p4993
a(lp4994
I1
aaa(lp4995
S'use safe primes'
p4996
a(lp4997
I1
aaa(lp4998
S'# challenges'
p4999
a(lp5000
I460
aaa(lp5001
S'# threads'
p5002
a(lp5003
I4
aaa(lp5004
g51
a(lp5005
S'262144'
p5006
aaatRp5007
ag2
((lp5008
(lp5009
S'Get key'
p5010
a(lp5011
F0.023833
aaa(lp5012
S'Create tag'
p5013
a(lp5014
F103.03609109999999
aF103.1235049
aF103.1237321
aF103.4300549
aF103.45255109999999
aF103.1709831
aF103.223393
aF103.142312
aF103.1772661
aF103.14793899999999
aaa(lp5015
S'Create challenge'
p5016
a(lp5017
F0.0016869999999999999
aF0.0017049000000000001
aF0.001653
aF0.001683
aF0.0015770999999999999
aF0.0015969000000000001
aF0.0016079
aF0.0015922
aF0.0015891
aF0.0015929
aaa(lp5018
S'Sanitize challenge'
p5019
a(lp5020
F5.0000000000000004e-06
aF1.1999999999999999e-06
aF9.9999999999999995e-07
aF0
aF0
aF0
aF0
aF9.9999999999999995e-07
aF0
aF0
aaa(lp5021
S'Create proof'
p5022
a(lp5023
F0.27414080000000002
aF0.29141400000000001
aF0.27459909999999998
aF0.4708369
aF0.2733119
aF0.27416109999999999
aF0.27276800000000001
aF0.274482
aF0.2746499
aF0.27316210000000002
aaa(lp5024
S'Verify file'
p5025
a(lp5026
F0.0056679
aF0.0055808999999999997
aF0.0056100000000000004
aF0.0055861000000000001
aF0.0056528999999999998
aF0.0055981
aF0.0056030999999999997
aF0.005594
aF0.0056018999999999999
aF0.0055830000000000003
aaa(lp5027
S'HEAD'
p5028
a(lp5029
I0
aaa(lp5030
S'GET'
p5031
a(lp5032
I0
aaa(lp5033
S'PUT'
p5034
a(lp5035
I0
aaa(lp5036
S'COPY'
p5037
a(lp5038
I0
aaa(lp5039
S'LIST'
p5040
a(lp5041
I0
aaa(lp5042
S'POST'
p5043
a(lp5044
I0
aaa(lp5045
S'Metadata'
p5046
a(lp5047
S'PDP:Block size 16384:PRF key size 20:PRP key size 16:RSA key size 1024:use E-PDP 1:use safe primes 1:# challenges 460:# threads 4:Filename ../../test-files/testfile_rand_524288KB'
p5048
aaa(lp5049
S'Timestamp'
p5050
a(lp5051
I1347571996
aaa(lp5052
S'Block size'
p5053
a(lp5054
I16384
aaa(lp5055
S'PRF key size'
p5056
a(lp5057
I20
aaa(lp5058
S'PRP key size'
p5059
a(lp5060
I16
aaa(lp5061
S'RSA key size'
p5062
a(lp5063
I1024
aaa(lp5064
S'use E-PDP'
p5065
a(lp5066
I1
aaa(lp5067
S'use safe primes'
p5068
a(lp5069
I1
aaa(lp5070
S'# challenges'
p5071
a(lp5072
I460
aaa(lp5073
S'# threads'
p5074
a(lp5075
I4
aaa(lp5076
g51
a(lp5077
S'524288'
p5078
aaatRp5079
ag2
((lp5080
(lp5081
S'Get key'
p5082
a(lp5083
F0.023958
aaa(lp5084
S'Create tag'
p5085
a(lp5086
F207.03973199999999
aF207.0978508
aF207.07118080000001
aF207.13489820000001
aF207.08254289999999
aF207.36334489999999
aF207.4815199
aF207.23738410000001
aF207.45507910000001
aF207.40921589999999
aaa(lp5087
S'Create challenge'
p5088
a(lp5089
F0.00175
aF0.0017202000000000001
aF0.001621
aF0.0015991
aF0.0016248
aF0.0016191000000000001
aF0.0015969000000000001
aF0.001606
aF0.0016201
aF0.0016180999999999999
aaa(lp5090
S'Sanitize challenge'
p5091
a(lp5092
F7.9000000000000006e-06
aF0
aF1.1999999999999999e-06
aF0
aF9.9999999999999995e-07
aF0
aF0
aF0
aF0
aF9.9999999999999995e-07
aaa(lp5093
S'Create proof'
p5094
a(lp5095
F0.27738600000000002
aF0.27966400000000002
aF0.27349499999999999
aF0.2733352
aF0.272758
aF0.27713989999999999
aF0.27488299999999999
aF0.2754259
aF0.27469110000000002
aF0.27570099999999997
aaa(lp5096
S'Verify file'
p5097
a(lp5098
F0.0057298999999999996
aF0.0055690000000000002
aF0.0055821000000000004
aF0.005574
aF0.0055821000000000004
aF0.005594
aF0.005574
aF0.0055849999999999997
aF0.005574
aF0.0055621000000000004
aaa(lp5099
S'HEAD'
p5100
a(lp5101
I0
aaa(lp5102
S'GET'
p5103
a(lp5104
I0
aaa(lp5105
S'PUT'
p5106
a(lp5107
I0
aaa(lp5108
S'COPY'
p5109
a(lp5110
I0
aaa(lp5111
S'LIST'
p5112
a(lp5113
I0
aaa(lp5114
S'POST'
p5115
a(lp5116
I0
aaa(lp5117
S'Metadata'
p5118
a(lp5119
S'PDP:Block size 16384:PRF key size 20:PRP key size 16:RSA key size 1024:use E-PDP 1:use safe primes 1:# challenges 460:# threads 4:Filename ../../test-files/testfile_rand_1048576KB'
p5120
aaa(lp5121
S'Timestamp'
p5122
a(lp5123
I1347574299
aaa(lp5124
S'Block size'
p5125
a(lp5126
I16384
aaa(lp5127
S'PRF key size'
p5128
a(lp5129
I20
aaa(lp5130
S'PRP key size'
p5131
a(lp5132
I16
aaa(lp5133
S'RSA key size'
p5134
a(lp5135
I1024
aaa(lp5136
S'use E-PDP'
p5137
a(lp5138
I1
aaa(lp5139
S'use safe primes'
p5140
a(lp5141
I1
aaa(lp5142
S'# challenges'
p5143
a(lp5144
I460
aaa(lp5145
S'# threads'
p5146
a(lp5147
I4
aaa(lp5148
g51
a(lp5149
S'1048576'
p5150
aaatRp5151
a.