(lp1
ccollections
OrderedDict
p2
((lp3
(lp4
S'Create tag'
p5
a(lp6
F0.021419000000000001
aaa(lp7
S'Create challenge'
p8
a(lp9
F0.00014999999999999999
aaa(lp10
S'Verify file'
p11
a(lp12
F0.00047110000000000001
aaa(lp13
S'HEAD'
p14
a(lp15
I0
aaa(lp16
S'GET'
p17
a(lp18
I0
aaa(lp19
S'PUT'
p20
a(lp21
I0
aaa(lp22
S'COPY'
p23
a(lp24
I0
aaa(lp25
S'LIST'
p26
a(lp27
I0
aaa(lp28
S'POST'
p29
a(lp30
I0
aaa(lp31
S'Metadata'
p32
a(lp33
S'MAC-PDP:Block size 4096:# challenges 460:# threads 1:Filename ../../test-files/testfile_rand_2KB'
p34
aaa(lp35
S'Timestamp'
p36
a(lp37
I1347322955
aaa(lp38
S'Block size'
p39
a(lp40
I4096
aaa(lp41
S'# challenges'
p42
a(lp43
I460
aaa(lp44
S'# threads'
p45
a(lp46
I1
aaa(lp47
S'File size (kb)'
p48
a(lp49
S'2'
aaatRp50
ag2
((lp51
(lp52
S'Create tag'
p53
a(lp54
F0.024550900000000001
aaa(lp55
S'Create challenge'
p56
a(lp57
F0.0002232
aaa(lp58
S'Verify file'
p59
a(lp60
F0.00052400000000000005
aaa(lp61
S'HEAD'
p62
a(lp63
I0
aaa(lp64
S'GET'
p65
a(lp66
I0
aaa(lp67
S'PUT'
p68
a(lp69
I0
aaa(lp70
S'COPY'
p71
a(lp72
I0
aaa(lp73
S'LIST'
p74
a(lp75
I0
aaa(lp76
S'POST'
p77
a(lp78
I0
aaa(lp79
S'Metadata'
p80
a(lp81
S'MAC-PDP:Block size 4096:# challenges 460:# threads 1:Filename ../../test-files/testfile_rand_4KB'
p82
aaa(lp83
S'Timestamp'
p84
a(lp85
I1347322958
aaa(lp86
S'Block size'
p87
a(lp88
I4096
aaa(lp89
S'# challenges'
p90
a(lp91
I460
aaa(lp92
S'# threads'
p93
a(lp94
I1
aaa(lp95
g48
a(lp96
S'4'
aaatRp97
ag2
((lp98
(lp99
S'Create tag'
p100
a(lp101
F0.024759099999999999
aaa(lp102
S'Create challenge'
p103
a(lp104
F0.0002041
aaa(lp105
S'Verify file'
p106
a(lp107
F0.0010560000000000001
aaa(lp108
S'HEAD'
p109
a(lp110
I0
aaa(lp111
S'GET'
p112
a(lp113
I0
aaa(lp114
S'PUT'
p115
a(lp116
I0
aaa(lp117
S'COPY'
p118
a(lp119
I0
aaa(lp120
S'LIST'
p121
a(lp122
I0
aaa(lp123
S'POST'
p124
a(lp125
I0
aaa(lp126
S'Metadata'
p127
a(lp128
S'MAC-PDP:Block size 4096:# challenges 460:# threads 1:Filename ../../test-files/testfile_rand_8KB'
p129
aaa(lp130
S'Timestamp'
p131
a(lp132
I1347322960
aaa(lp133
S'Block size'
p134
a(lp135
I4096
aaa(lp136
S'# challenges'
p137
a(lp138
I460
aaa(lp139
S'# threads'
p140
a(lp141
I1
aaa(lp142
g48
a(lp143
S'8'
aaatRp144
ag2
((lp145
(lp146
S'Create tag'
p147
a(lp148
F0.0273061
aaa(lp149
S'Create challenge'
p150
a(lp151
F0.00019379999999999999
aaa(lp152
S'Verify file'
p153
a(lp154
F0.0018139
aaa(lp155
S'HEAD'
p156
a(lp157
I0
aaa(lp158
S'GET'
p159
a(lp160
I0
aaa(lp161
S'PUT'
p162
a(lp163
I0
aaa(lp164
S'COPY'
p165
a(lp166
I0
aaa(lp167
S'LIST'
p168
a(lp169
I0
aaa(lp170
S'POST'
p171
a(lp172
I0
aaa(lp173
S'Metadata'
p174
a(lp175
S'MAC-PDP:Block size 4096:# challenges 460:# threads 1:Filename ../../test-files/testfile_rand_16KB'
p176
aaa(lp177
S'Timestamp'
p178
a(lp179
I1347322963
aaa(lp180
S'Block size'
p181
a(lp182
I4096
aaa(lp183
S'# challenges'
p184
a(lp185
I460
aaa(lp186
S'# threads'
p187
a(lp188
I1
aaa(lp189
g48
a(lp190
S'16'
p191
aaatRp192
ag2
((lp193
(lp194
S'Create tag'
p195
a(lp196
F0.029573200000000001
aaa(lp197
S'Create challenge'
p198
a(lp199
F0.0002151
aaa(lp200
S'Verify file'
p201
a(lp202
F0.0035701000000000001
aaa(lp203
S'HEAD'
p204
a(lp205
I0
aaa(lp206
S'GET'
p207
a(lp208
I0
aaa(lp209
S'PUT'
p210
a(lp211
I0
aaa(lp212
S'COPY'
p213
a(lp214
I0
aaa(lp215
S'LIST'
p216
a(lp217
I0
aaa(lp218
S'POST'
p219
a(lp220
I0
aaa(lp221
S'Metadata'
p222
a(lp223
S'MAC-PDP:Block size 4096:# challenges 460:# threads 1:Filename ../../test-files/testfile_rand_32KB'
p224
aaa(lp225
S'Timestamp'
p226
a(lp227
I1347322966
aaa(lp228
S'Block size'
p229
a(lp230
I4096
aaa(lp231
S'# challenges'
p232
a(lp233
I460
aaa(lp234
S'# threads'
p235
a(lp236
I1
aaa(lp237
g48
a(lp238
S'32'
p239
aaatRp240
ag2
((lp241
(lp242
S'Create tag'
p243
a(lp244
F0.0240111
aaa(lp245
S'Create challenge'
p246
a(lp247
F0.00024800000000000001
aaa(lp248
S'Verify file'
p249
a(lp250
F0.0074879999999999999
aaa(lp251
S'HEAD'
p252
a(lp253
I0
aaa(lp254
S'GET'
p255
a(lp256
I0
aaa(lp257
S'PUT'
p258
a(lp259
I0
aaa(lp260
S'COPY'
p261
a(lp262
I0
aaa(lp263
S'LIST'
p264
a(lp265
I0
aaa(lp266
S'POST'
p267
a(lp268
I0
aaa(lp269
S'Metadata'
p270
a(lp271
S'MAC-PDP:Block size 4096:# challenges 460:# threads 1:Filename ../../test-files/testfile_rand_64KB'
p272
aaa(lp273
S'Timestamp'
p274
a(lp275
I1347322968
aaa(lp276
S'Block size'
p277
a(lp278
I4096
aaa(lp279
S'# challenges'
p280
a(lp281
I460
aaa(lp282
S'# threads'
p283
a(lp284
I1
aaa(lp285
g48
a(lp286
S'64'
p287
aaatRp288
ag2
((lp289
(lp290
S'Create tag'
p291
a(lp292
F0.029298100000000001
aaa(lp293
S'Create challenge'
p294
a(lp295
F0.00032620000000000001
aaa(lp296
S'Verify file'
p297
a(lp298
F0.0146129
aaa(lp299
S'HEAD'
p300
a(lp301
I0
aaa(lp302
S'GET'
p303
a(lp304
I0
aaa(lp305
S'PUT'
p306
a(lp307
I0
aaa(lp308
S'COPY'
p309
a(lp310
I0
aaa(lp311
S'LIST'
p312
a(lp313
I0
aaa(lp314
S'POST'
p315
a(lp316
I0
aaa(lp317
S'Metadata'
p318
a(lp319
S'MAC-PDP:Block size 4096:# challenges 460:# threads 1:Filename ../../test-files/testfile_rand_128KB'
p320
aaa(lp321
S'Timestamp'
p322
a(lp323
I1347322971
aaa(lp324
S'Block size'
p325
a(lp326
I4096
aaa(lp327
S'# challenges'
p328
a(lp329
I460
aaa(lp330
S'# threads'
p331
a(lp332
I1
aaa(lp333
g48
a(lp334
S'128'
p335
aaatRp336
ag2
((lp337
(lp338
S'Create tag'
p339
a(lp340
F0.031656999999999998
aaa(lp341
S'Create challenge'
p342
a(lp343
F0.00049810000000000002
aaa(lp344
S'Verify file'
p345
a(lp346
F0.028665099999999999
aaa(lp347
S'HEAD'
p348
a(lp349
I0
aaa(lp350
S'GET'
p351
a(lp352
I0
aaa(lp353
S'PUT'
p354
a(lp355
I0
aaa(lp356
S'COPY'
p357
a(lp358
I0
aaa(lp359
S'LIST'
p360
a(lp361
I0
aaa(lp362
S'POST'
p363
a(lp364
I0
aaa(lp365
S'Metadata'
p366
a(lp367
S'MAC-PDP:Block size 4096:# challenges 460:# threads 1:Filename ../../test-files/testfile_rand_256KB'
p368
aaa(lp369
S'Timestamp'
p370
a(lp371
I1347322974
aaa(lp372
S'Block size'
p373
a(lp374
I4096
aaa(lp375
S'# challenges'
p376
a(lp377
I460
aaa(lp378
S'# threads'
p379
a(lp380
I1
aaa(lp381
g48
a(lp382
S'256'
p383
aaatRp384
ag2
((lp385
(lp386
S'Create tag'
p387
a(lp388
F0.036101800000000003
aaa(lp389
S'Create challenge'
p390
a(lp391
F0.00082589999999999996
aaa(lp392
S'Verify file'
p393
a(lp394
F0.055901100000000002
aaa(lp395
S'HEAD'
p396
a(lp397
I0
aaa(lp398
S'GET'
p399
a(lp400
I0
aaa(lp401
S'PUT'
p402
a(lp403
I0
aaa(lp404
S'COPY'
p405
a(lp406
I0
aaa(lp407
S'LIST'
p408
a(lp409
I0
aaa(lp410
S'POST'
p411
a(lp412
I0
aaa(lp413
S'Metadata'
p414
a(lp415
S'MAC-PDP:Block size 4096:# challenges 460:# threads 1:Filename ../../test-files/testfile_rand_512KB'
p416
aaa(lp417
S'Timestamp'
p418
a(lp419
I1347322978
aaa(lp420
S'Block size'
p421
a(lp422
I4096
aaa(lp423
S'# challenges'
p424
a(lp425
I460
aaa(lp426
S'# threads'
p427
a(lp428
I1
aaa(lp429
g48
a(lp430
S'512'
p431
aaatRp432
ag2
((lp433
(lp434
S'Create tag'
p435
a(lp436
F0.078563900000000006
aaa(lp437
S'Create challenge'
p438
a(lp439
F0.0016770000000000001
aaa(lp440
S'Verify file'
p441
a(lp442
F0.14665700000000001
aaa(lp443
S'HEAD'
p444
a(lp445
I0
aaa(lp446
S'GET'
p447
a(lp448
I0
aaa(lp449
S'PUT'
p450
a(lp451
I0
aaa(lp452
S'COPY'
p453
a(lp454
I0
aaa(lp455
S'LIST'
p456
a(lp457
I0
aaa(lp458
S'POST'
p459
a(lp460
I0
aaa(lp461
S'Metadata'
p462
a(lp463
S'MAC-PDP:Block size 4096:# challenges 460:# threads 1:Filename ../../test-files/testfile_rand_1024KB'
p464
aaa(lp465
S'Timestamp'
p466
a(lp467
I1347322982
aaa(lp468
S'Block size'
p469
a(lp470
I4096
aaa(lp471
S'# challenges'
p472
a(lp473
I460
aaa(lp474
S'# threads'
p475
a(lp476
I1
aaa(lp477
g48
a(lp478
S'1024'
p479
aaatRp480
ag2
((lp481
(lp482
S'Create tag'
p483
a(lp484
F0.098519999999999996
aaa(lp485
S'Create challenge'
p486
a(lp487
F0.0025910999999999998
aaa(lp488
S'Verify file'
p489
a(lp490
F0.20997689999999999
aaa(lp491
S'HEAD'
p492
a(lp493
I0
aaa(lp494
S'GET'
p495
a(lp496
I0
aaa(lp497
S'PUT'
p498
a(lp499
I0
aaa(lp500
S'COPY'
p501
a(lp502
I0
aaa(lp503
S'LIST'
p504
a(lp505
I0
aaa(lp506
S'POST'
p507
a(lp508
I0
aaa(lp509
S'Metadata'
p510
a(lp511
S'MAC-PDP:Block size 4096:# challenges 460:# threads 1:Filename ../../test-files/testfile_rand_2048KB'
p512
aaa(lp513
S'Timestamp'
p514
a(lp515
I1347322988
aaa(lp516
S'Block size'
p517
a(lp518
I4096
aaa(lp519
S'# challenges'
p520
a(lp521
I460
aaa(lp522
S'# threads'
p523
a(lp524
I1
aaa(lp525
g48
a(lp526
S'2048'
p527
aaatRp528
ag2
((lp529
(lp530
S'Create tag'
p531
a(lp532
F0.17274999999999999
aaa(lp533
S'Create challenge'
p534
a(lp535
F0.0026800999999999999
aaa(lp536
S'Verify file'
p537
a(lp538
F0.2096848
aaa(lp539
S'HEAD'
p540
a(lp541
I0
aaa(lp542
S'GET'
p543
a(lp544
I0
aaa(lp545
S'PUT'
p546
a(lp547
I0
aaa(lp548
S'COPY'
p549
a(lp550
I0
aaa(lp551
S'LIST'
p552
a(lp553
I0
aaa(lp554
S'POST'
p555
a(lp556
I0
aaa(lp557
S'Metadata'
p558
a(lp559
S'MAC-PDP:Block size 4096:# challenges 460:# threads 1:Filename ../../test-files/testfile_rand_4096KB'
p560
aaa(lp561
S'Timestamp'
p562
a(lp563
I1347323035
aaa(lp564
S'Block size'
p565
a(lp566
I4096
aaa(lp567
S'# challenges'
p568
a(lp569
I460
aaa(lp570
S'# threads'
p571
a(lp572
I1
aaa(lp573
g48
a(lp574
S'4096'
p575
aaatRp576
ag2
((lp577
(lp578
S'Create tag'
p579
a(lp580
F2.888938
aaa(lp581
S'Create challenge'
p582
a(lp583
F0.0024469000000000001
aaa(lp584
S'Verify file'
p585
a(lp586
F2.2168472000000001
aaa(lp587
S'HEAD'
p588
a(lp589
I0
aaa(lp590
S'GET'
p591
a(lp592
I0
aaa(lp593
S'PUT'
p594
a(lp595
I0
aaa(lp596
S'COPY'
p597
a(lp598
I0
aaa(lp599
S'LIST'
p600
a(lp601
I0
aaa(lp602
S'POST'
p603
a(lp604
I0
aaa(lp605
S'Metadata'
p606
a(lp607
S'MAC-PDP:Block size 4096:# challenges 460:# threads 1:Filename ../../test-files/testfile_rand_8192KB'
p608
aaa(lp609
S'Timestamp'
p610
a(lp611
I1347323098
aaa(lp612
S'Block size'
p613
a(lp614
I4096
aaa(lp615
S'# challenges'
p616
a(lp617
I460
aaa(lp618
S'# threads'
p619
a(lp620
I1
aaa(lp621
g48
a(lp622
S'8192'
p623
aaatRp624
ag2
((lp625
(lp626
S'Create tag'
p627
a(lp628
F5.7875420999999996
aaa(lp629
S'Create challenge'
p630
a(lp631
F0.098604899999999995
aaa(lp632
S'Verify file'
p633
a(lp634
F2.1302409
aaa(lp635
S'HEAD'
p636
a(lp637
I0
aaa(lp638
S'GET'
p639
a(lp640
I0
aaa(lp641
S'PUT'
p642
a(lp643
I0
aaa(lp644
S'COPY'
p645
a(lp646
I0
aaa(lp647
S'LIST'
p648
a(lp649
I0
aaa(lp650
S'POST'
p651
a(lp652
I0
aaa(lp653
S'Metadata'
p654
a(lp655
S'MAC-PDP:Block size 4096:# challenges 460:# threads 1:Filename ../../test-files/testfile_rand_16384KB'
p656
aaa(lp657
S'Timestamp'
p658
a(lp659
I1347323239
aaa(lp660
S'Block size'
p661
a(lp662
I4096
aaa(lp663
S'# challenges'
p664
a(lp665
I460
aaa(lp666
S'# threads'
p667
a(lp668
I1
aaa(lp669
g48
a(lp670
S'16384'
p671
aaatRp672
ag2
((lp673
(lp674
S'Create tag'
p675
a(lp676
F11.5382578
aaa(lp677
S'Create challenge'
p678
a(lp679
F0.0024769000000000002
aaa(lp680
S'Verify file'
p681
a(lp682
F2.2046329999999998
aaa(lp683
S'HEAD'
p684
a(lp685
I0
aaa(lp686
S'GET'
p687
a(lp688
I0
aaa(lp689
S'PUT'
p690
a(lp691
I0
aaa(lp692
S'COPY'
p693
a(lp694
I0
aaa(lp695
S'LIST'
p696
a(lp697
I0
aaa(lp698
S'POST'
p699
a(lp700
I0
aaa(lp701
S'Metadata'
p702
a(lp703
S'MAC-PDP:Block size 4096:# challenges 460:# threads 1:Filename ../../test-files/testfile_rand_32768KB'
p704
aaa(lp705
S'Timestamp'
p706
a(lp707
I1347323494
aaa(lp708
S'Block size'
p709
a(lp710
I4096
aaa(lp711
S'# challenges'
p712
a(lp713
I460
aaa(lp714
S'# threads'
p715
a(lp716
I1
aaa(lp717
g48
a(lp718
S'32768'
p719
aaatRp720
ag2
((lp721
(lp722
S'Create tag'
p723
a(lp724
F25.454424899999999
aaa(lp725
S'Create challenge'
p726
a(lp727
F0.0027349000000000002
aaa(lp728
S'Verify file'
p729
a(lp730
F2.242826
aaa(lp731
S'HEAD'
p732
a(lp733
I0
aaa(lp734
S'GET'
p735
a(lp736
I0
aaa(lp737
S'PUT'
p738
a(lp739
I0
aaa(lp740
S'COPY'
p741
a(lp742
I0
aaa(lp743
S'LIST'
p744
a(lp745
I0
aaa(lp746
S'POST'
p747
a(lp748
I0
aaa(lp749
S'Metadata'
p750
a(lp751
S'MAC-PDP:Block size 4096:# challenges 460:# threads 1:Filename ../../test-files/testfile_rand_65536KB'
p752
aaa(lp753
S'Timestamp'
p754
a(lp755
I1347324025
aaa(lp756
S'Block size'
p757
a(lp758
I4096
aaa(lp759
S'# challenges'
p760
a(lp761
I460
aaa(lp762
S'# threads'
p763
a(lp764
I1
aaa(lp765
g48
a(lp766
S'65536'
p767
aaatRp768
ag2
((lp769
(lp770
S'Create tag'
p771
a(lp772
F4.8476131000000002
aaa(lp773
S'Create challenge'
p774
a(lp775
F0.0027989999999999998
aaa(lp776
S'Verify file'
p777
a(lp778
F0.21810199999999999
aaa(lp779
S'HEAD'
p780
a(lp781
I0
aaa(lp782
S'GET'
p783
a(lp784
I0
aaa(lp785
S'PUT'
p786
a(lp787
I0
aaa(lp788
S'COPY'
p789
a(lp790
I0
aaa(lp791
S'LIST'
p792
a(lp793
I0
aaa(lp794
S'POST'
p795
a(lp796
I0
aaa(lp797
S'Metadata'
p798
a(lp799
S'MAC-PDP:Block size 4096:# challenges 460:# threads 1:Filename ../../test-files/testfile_rand_131072KB'
p800
aaa(lp801
S'Timestamp'
p802
a(lp803
I1347325111
aaa(lp804
S'Block size'
p805
a(lp806
I4096
aaa(lp807
S'# challenges'
p808
a(lp809
I460
aaa(lp810
S'# threads'
p811
a(lp812
I1
aaa(lp813
g48
a(lp814
S'131072'
p815
aaatRp816
ag2
((lp817
(lp818
S'Create tag'
p819
a(lp820
F63.424771999999997
aaa(lp821
S'Create challenge'
p822
a(lp823
F0.0027590000000000002
aaa(lp824
S'Verify file'
p825
a(lp826
F0.2288299
aaa(lp827
S'HEAD'
p828
a(lp829
I0
aaa(lp830
S'GET'
p831
a(lp832
I0
aaa(lp833
S'PUT'
p834
a(lp835
I0
aaa(lp836
S'COPY'
p837
a(lp838
I0
aaa(lp839
S'LIST'
p840
a(lp841
I0
aaa(lp842
S'POST'
p843
a(lp844
I0
aaa(lp845
S'Metadata'
p846
a(lp847
S'MAC-PDP:Block size 4096:# challenges 460:# threads 1:Filename ../../test-files/testfile_rand_262144KB'
p848
aaa(lp849
S'Timestamp'
p850
a(lp851
I1347327282
aaa(lp852
S'Block size'
p853
a(lp854
I4096
aaa(lp855
S'# challenges'
p856
a(lp857
I460
aaa(lp858
S'# threads'
p859
a(lp860
I1
aaa(lp861
g48
a(lp862
S'262144'
p863
aaatRp864
ag2
((lp865
(lp866
S'Create tag'
p867
a(lp868
F222.26118210000001
aaa(lp869
S'Create challenge'
p870
a(lp871
F0.0030379000000000001
aaa(lp872
S'Verify file'
p873
a(lp874
F0.9201281
aaa(lp875
S'HEAD'
p876
a(lp877
I0
aaa(lp878
S'GET'
p879
a(lp880
I0
aaa(lp881
S'PUT'
p882
a(lp883
I0
aaa(lp884
S'COPY'
p885
a(lp886
I0
aaa(lp887
S'LIST'
p888
a(lp889
I0
aaa(lp890
S'POST'
p891
a(lp892
I0
aaa(lp893
S'Metadata'
p894
a(lp895
S'MAC-PDP:Block size 4096:# challenges 460:# threads 1:Filename ../../test-files/testfile_rand_524288KB'
p896
aaa(lp897
S'Timestamp'
p898
a(lp899
I1347332907
aaa(lp900
S'Block size'
p901
a(lp902
I4096
aaa(lp903
S'# challenges'
p904
a(lp905
I460
aaa(lp906
S'# threads'
p907
a(lp908
I1
aaa(lp909
g48
a(lp910
S'524288'
p911
aaatRp912
ag2
((lp913
(lp914
S'Create tag'
p915
a(lp916
F0.020818
aaa(lp917
S'Create challenge'
p918
a(lp919
F0.00014210000000000001
aaa(lp920
S'Verify file'
p921
a(lp922
F9.9999999999999995e-07
aaa(lp923
S'HEAD'
p924
a(lp925
I0
aaa(lp926
S'GET'
p927
a(lp928
I0
aaa(lp929
S'PUT'
p930
a(lp931
I0
aaa(lp932
S'COPY'
p933
a(lp934
I0
aaa(lp935
S'LIST'
p936
a(lp937
I0
aaa(lp938
S'POST'
p939
a(lp940
I0
aaa(lp941
S'Metadata'
p942
a(lp943
S'MAC-PDP:Block size 4096:# challenges 460:# threads 1:Filename ../../test-files/testfile_rand_1048576KB'
p944
aaa(lp945
S'Timestamp'
p946
a(lp947
I1347342649
aaa(lp948
S'Block size'
p949
a(lp950
I4096
aaa(lp951
S'# challenges'
p952
a(lp953
I460
aaa(lp954
S'# threads'
p955
a(lp956
I1
aaa(lp957
g48
a(lp958
S'1048576'
p959
aaatRp960
ag2
((lp961
(lp962
S'Create tag'
p963
a(lp964
F0.025846999999999998
aaa(lp965
S'Create challenge'
p966
a(lp967
F0.00098200000000000002
aaa(lp968
S'Create proof'
p969
a(lp970
F0.00081709999999999997
aaa(lp971
S'Verify file'
p972
a(lp973
F0.00092599999999999996
aaa(lp974
S'HEAD'
p975
a(lp976
I0
aaa(lp977
S'GET'
p978
a(lp979
I0
aaa(lp980
S'PUT'
p981
a(lp982
I0
aaa(lp983
S'COPY'
p984
a(lp985
I0
aaa(lp986
S'LIST'
p987
a(lp988
I0
aaa(lp989
S'POST'
p990
a(lp991
I0
aaa(lp992
S'Metadata'
p993
a(lp994
S'CPOR:Block size 4096:PRF key size 20:ENC key size 32:MAC key size 20:lambda 80:Zp bits 80:# challenge blocks 80:# threads 1:Filename ../../test-files/testfile_rand_2KB'
p995
aaa(lp996
S'Timestamp'
p997
a(lp998
I1347322955
aaa(lp999
S'Block size'
p1000
a(lp1001
I4096
aaa(lp1002
S'PRF key size'
p1003
a(lp1004
I20
aaa(lp1005
S'ENC key size'
p1006
a(lp1007
I32
aaa(lp1008
S'MAC key size'
p1009
a(lp1010
I20
aaa(lp1011
S'lambda'
p1012
a(lp1013
I80
aaa(lp1014
S'Zp bits'
p1015
a(lp1016
I80
aaa(lp1017
S'# challenge blocks'
p1018
a(lp1019
I80
aaa(lp1020
S'# threads'
p1021
a(lp1022
I1
aaa(lp1023
g48
a(lp1024
S'2'
aaatRp1025
ag2
((lp1026
(lp1027
S'Create tag'
p1028
a(lp1029
F0.024195000000000001
aaa(lp1030
S'Create challenge'
p1031
a(lp1032
F0.00099799999999999997
aaa(lp1033
S'Create proof'
p1034
a(lp1035
F0.00078390000000000003
aaa(lp1036
S'Verify file'
p1037
a(lp1038
F0.00093199999999999999
aaa(lp1039
S'HEAD'
p1040
a(lp1041
I0
aaa(lp1042
S'GET'
p1043
a(lp1044
I0
aaa(lp1045
S'PUT'
p1046
a(lp1047
I0
aaa(lp1048
S'COPY'
p1049
a(lp1050
I0
aaa(lp1051
S'LIST'
p1052
a(lp1053
I0
aaa(lp1054
S'POST'
p1055
a(lp1056
I0
aaa(lp1057
S'Metadata'
p1058
a(lp1059
S'CPOR:Block size 4096:PRF key size 20:ENC key size 32:MAC key size 20:lambda 80:Zp bits 80:# challenge blocks 80:# threads 1:Filename ../../test-files/testfile_rand_4KB'
p1060
aaa(lp1061
S'Timestamp'
p1062
a(lp1063
I1347322958
aaa(lp1064
S'Block size'
p1065
a(lp1066
I4096
aaa(lp1067
S'PRF key size'
p1068
a(lp1069
I20
aaa(lp1070
S'ENC key size'
p1071
a(lp1072
I32
aaa(lp1073
S'MAC key size'
p1074
a(lp1075
I20
aaa(lp1076
S'lambda'
p1077
a(lp1078
I80
aaa(lp1079
S'Zp bits'
p1080
a(lp1081
I80
aaa(lp1082
S'# challenge blocks'
p1083
a(lp1084
I80
aaa(lp1085
S'# threads'
p1086
a(lp1087
I1
aaa(lp1088
g48
a(lp1089
S'4'
aaatRp1090
ag2
((lp1091
(lp1092
S'Create tag'
p1093
a(lp1094
F0.0233791
aaa(lp1095
S'Create challenge'
p1096
a(lp1097
F0.0010430999999999999
aaa(lp1098
S'Create proof'
p1099
a(lp1100
F0.0012750999999999999
aaa(lp1101
S'Verify file'
p1102
a(lp1103
F0.00099299999999999996
aaa(lp1104
S'HEAD'
p1105
a(lp1106
I0
aaa(lp1107
S'GET'
p1108
a(lp1109
I0
aaa(lp1110
S'PUT'
p1111
a(lp1112
I0
aaa(lp1113
S'COPY'
p1114
a(lp1115
I0
aaa(lp1116
S'LIST'
p1117
a(lp1118
I0
aaa(lp1119
S'POST'
p1120
a(lp1121
I0
aaa(lp1122
S'Metadata'
p1123
a(lp1124
S'CPOR:Block size 4096:PRF key size 20:ENC key size 32:MAC key size 20:lambda 80:Zp bits 80:# challenge blocks 80:# threads 1:Filename ../../test-files/testfile_rand_8KB'
p1125
aaa(lp1126
S'Timestamp'
p1127
a(lp1128
I1347322960
aaa(lp1129
S'Block size'
p1130
a(lp1131
I4096
aaa(lp1132
S'PRF key size'
p1133
a(lp1134
I20
aaa(lp1135
S'ENC key size'
p1136
a(lp1137
I32
aaa(lp1138
S'MAC key size'
p1139
a(lp1140
I20
aaa(lp1141
S'lambda'
p1142
a(lp1143
I80
aaa(lp1144
S'Zp bits'
p1145
a(lp1146
I80
aaa(lp1147
S'# challenge blocks'
p1148
a(lp1149
I80
aaa(lp1150
S'# threads'
p1151
a(lp1152
I1
aaa(lp1153
g48
a(lp1154
S'8'
aaatRp1155
ag2
((lp1156
(lp1157
S'Create tag'
p1158
a(lp1159
F0.037622900000000001
aaa(lp1160
S'Create challenge'
p1161
a(lp1162
F0.0010831
aaa(lp1163
S'Create proof'
p1164
a(lp1165
F0.0021879999999999998
aaa(lp1166
S'Verify file'
p1167
a(lp1168
F0.0010161
aaa(lp1169
S'HEAD'
p1170
a(lp1171
I0
aaa(lp1172
S'GET'
p1173
a(lp1174
I0
aaa(lp1175
S'PUT'
p1176
a(lp1177
I0
aaa(lp1178
S'COPY'
p1179
a(lp1180
I0
aaa(lp1181
S'LIST'
p1182
a(lp1183
I0
aaa(lp1184
S'POST'
p1185
a(lp1186
I0
aaa(lp1187
S'Metadata'
p1188
a(lp1189
S'CPOR:Block size 4096:PRF key size 20:ENC key size 32:MAC key size 20:lambda 80:Zp bits 80:# challenge blocks 80:# threads 1:Filename ../../test-files/testfile_rand_16KB'
p1190
aaa(lp1191
S'Timestamp'
p1192
a(lp1193
I1347322963
aaa(lp1194
S'Block size'
p1195
a(lp1196
I4096
aaa(lp1197
S'PRF key size'
p1198
a(lp1199
I20
aaa(lp1200
S'ENC key size'
p1201
a(lp1202
I32
aaa(lp1203
S'MAC key size'
p1204
a(lp1205
I20
aaa(lp1206
S'lambda'
p1207
a(lp1208
I80
aaa(lp1209
S'Zp bits'
p1210
a(lp1211
I80
aaa(lp1212
S'# challenge blocks'
p1213
a(lp1214
I80
aaa(lp1215
S'# threads'
p1216
a(lp1217
I1
aaa(lp1218
g48
a(lp1219
S'16'
p1220
aaatRp1221
ag2
((lp1222
(lp1223
S'Create tag'
p1224
a(lp1225
F0.037593799999999997
aaa(lp1226
S'Create challenge'
p1227
a(lp1228
F0.0012319
aaa(lp1229
S'Create proof'
p1230
a(lp1231
F0.0043820999999999999
aaa(lp1232
S'Verify file'
p1233
a(lp1234
F0.00125
aaa(lp1235
S'HEAD'
p1236
a(lp1237
I0
aaa(lp1238
S'GET'
p1239
a(lp1240
I0
aaa(lp1241
S'PUT'
p1242
a(lp1243
I0
aaa(lp1244
S'COPY'
p1245
a(lp1246
I0
aaa(lp1247
S'LIST'
p1248
a(lp1249
I0
aaa(lp1250
S'POST'
p1251
a(lp1252
I0
aaa(lp1253
S'Metadata'
p1254
a(lp1255
S'CPOR:Block size 4096:PRF key size 20:ENC key size 32:MAC key size 20:lambda 80:Zp bits 80:# challenge blocks 80:# threads 1:Filename ../../test-files/testfile_rand_32KB'
p1256
aaa(lp1257
S'Timestamp'
p1258
a(lp1259
I1347322966
aaa(lp1260
S'Block size'
p1261
a(lp1262
I4096
aaa(lp1263
S'PRF key size'
p1264
a(lp1265
I20
aaa(lp1266
S'ENC key size'
p1267
a(lp1268
I32
aaa(lp1269
S'MAC key size'
p1270
a(lp1271
I20
aaa(lp1272
S'lambda'
p1273
a(lp1274
I80
aaa(lp1275
S'Zp bits'
p1276
a(lp1277
I80
aaa(lp1278
S'# challenge blocks'
p1279
a(lp1280
I80
aaa(lp1281
S'# threads'
p1282
a(lp1283
I1
aaa(lp1284
g48
a(lp1285
S'32'
p1286
aaatRp1287
ag2
((lp1288
(lp1289
S'Create tag'
p1290
a(lp1291
F0.037504900000000001
aaa(lp1292
S'Create challenge'
p1293
a(lp1294
F0.0016410000000000001
aaa(lp1295
S'Create proof'
p1296
a(lp1297
F0.0081460000000000005
aaa(lp1298
S'Verify file'
p1299
a(lp1300
F0.0013248999999999999
aaa(lp1301
S'HEAD'
p1302
a(lp1303
I0
aaa(lp1304
S'GET'
p1305
a(lp1306
I0
aaa(lp1307
S'PUT'
p1308
a(lp1309
I0
aaa(lp1310
S'COPY'
p1311
a(lp1312
I0
aaa(lp1313
S'LIST'
p1314
a(lp1315
I0
aaa(lp1316
S'POST'
p1317
a(lp1318
I0
aaa(lp1319
S'Metadata'
p1320
a(lp1321
S'CPOR:Block size 4096:PRF key size 20:ENC key size 32:MAC key size 20:lambda 80:Zp bits 80:# challenge blocks 80:# threads 1:Filename ../../test-files/testfile_rand_64KB'
p1322
aaa(lp1323
S'Timestamp'
p1324
a(lp1325
I1347322968
aaa(lp1326
S'Block size'
p1327
a(lp1328
I4096
aaa(lp1329
S'PRF key size'
p1330
a(lp1331
I20
aaa(lp1332
S'ENC key size'
p1333
a(lp1334
I32
aaa(lp1335
S'MAC key size'
p1336
a(lp1337
I20
aaa(lp1338
S'lambda'
p1339
a(lp1340
I80
aaa(lp1341
S'Zp bits'
p1342
a(lp1343
I80
aaa(lp1344
S'# challenge blocks'
p1345
a(lp1346
I80
aaa(lp1347
S'# threads'
p1348
a(lp1349
I1
aaa(lp1350
g48
a(lp1351
S'64'
p1352
aaatRp1353
ag2
((lp1354
(lp1355
S'Create tag'
p1356
a(lp1357
F0.057819099999999998
aaa(lp1358
S'Create challenge'
p1359
a(lp1360
F0.002032
aaa(lp1361
S'Create proof'
p1362
a(lp1363
F0.018223
aaa(lp1364
S'Verify file'
p1365
a(lp1366
F0.0017009
aaa(lp1367
S'HEAD'
p1368
a(lp1369
I0
aaa(lp1370
S'GET'
p1371
a(lp1372
I0
aaa(lp1373
S'PUT'
p1374
a(lp1375
I0
aaa(lp1376
S'COPY'
p1377
a(lp1378
I0
aaa(lp1379
S'LIST'
p1380
a(lp1381
I0
aaa(lp1382
S'POST'
p1383
a(lp1384
I0
aaa(lp1385
S'Metadata'
p1386
a(lp1387
S'CPOR:Block size 4096:PRF key size 20:ENC key size 32:MAC key size 20:lambda 80:Zp bits 80:# challenge blocks 80:# threads 1:Filename ../../test-files/testfile_rand_128KB'
p1388
aaa(lp1389
S'Timestamp'
p1390
a(lp1391
I1347322971
aaa(lp1392
S'Block size'
p1393
a(lp1394
I4096
aaa(lp1395
S'PRF key size'
p1396
a(lp1397
I20
aaa(lp1398
S'ENC key size'
p1399
a(lp1400
I32
aaa(lp1401
S'MAC key size'
p1402
a(lp1403
I20
aaa(lp1404
S'lambda'
p1405
a(lp1406
I80
aaa(lp1407
S'Zp bits'
p1408
a(lp1409
I80
aaa(lp1410
S'# challenge blocks'
p1411
a(lp1412
I80
aaa(lp1413
S'# threads'
p1414
a(lp1415
I1
aaa(lp1416
g48
a(lp1417
S'128'
p1418
aaatRp1419
ag2
((lp1420
(lp1421
S'Create tag'
p1422
a(lp1423
F0.089203099999999994
aaa(lp1424
S'Create challenge'
p1425
a(lp1426
F0.0031611999999999999
aaa(lp1427
S'Create proof'
p1428
a(lp1429
F0.040510900000000002
aaa(lp1430
S'Verify file'
p1431
a(lp1432
F0.0024719
aaa(lp1433
S'HEAD'
p1434
a(lp1435
I0
aaa(lp1436
S'GET'
p1437
a(lp1438
I0
aaa(lp1439
S'PUT'
p1440
a(lp1441
I0
aaa(lp1442
S'COPY'
p1443
a(lp1444
I0
aaa(lp1445
S'LIST'
p1446
a(lp1447
I0
aaa(lp1448
S'POST'
p1449
a(lp1450
I0
aaa(lp1451
S'Metadata'
p1452
a(lp1453
S'CPOR:Block size 4096:PRF key size 20:ENC key size 32:MAC key size 20:lambda 80:Zp bits 80:# challenge blocks 80:# threads 1:Filename ../../test-files/testfile_rand_256KB'
p1454
aaa(lp1455
S'Timestamp'
p1456
a(lp1457
I1347322974
aaa(lp1458
S'Block size'
p1459
a(lp1460
I4096
aaa(lp1461
S'PRF key size'
p1462
a(lp1463
I20
aaa(lp1464
S'ENC key size'
p1465
a(lp1466
I32
aaa(lp1467
S'MAC key size'
p1468
a(lp1469
I20
aaa(lp1470
S'lambda'
p1471
a(lp1472
I80
aaa(lp1473
S'Zp bits'
p1474
a(lp1475
I80
aaa(lp1476
S'# challenge blocks'
p1477
a(lp1478
I80
aaa(lp1479
S'# threads'
p1480
a(lp1481
I1
aaa(lp1482
g48
a(lp1483
S'256'
p1484
aaatRp1485
ag2
((lp1486
(lp1487
S'Create tag'
p1488
a(lp1489
F0.084001099999999995
aaa(lp1490
S'Create challenge'
p1491
a(lp1492
F0.0036519
aaa(lp1493
S'Create proof'
p1494
a(lp1495
F0.067884
aaa(lp1496
S'Verify file'
p1497
a(lp1498
F0.0028958
aaa(lp1499
S'HEAD'
p1500
a(lp1501
I0
aaa(lp1502
S'GET'
p1503
a(lp1504
I0
aaa(lp1505
S'PUT'
p1506
a(lp1507
I0
aaa(lp1508
S'COPY'
p1509
a(lp1510
I0
aaa(lp1511
S'LIST'
p1512
a(lp1513
I0
aaa(lp1514
S'POST'
p1515
a(lp1516
I0
aaa(lp1517
S'Metadata'
p1518
a(lp1519
S'CPOR:Block size 4096:PRF key size 20:ENC key size 32:MAC key size 20:lambda 80:Zp bits 80:# challenge blocks 80:# threads 1:Filename ../../test-files/testfile_rand_512KB'
p1520
aaa(lp1521
S'Timestamp'
p1522
a(lp1523
I1347322978
aaa(lp1524
S'Block size'
p1525
a(lp1526
I4096
aaa(lp1527
S'PRF key size'
p1528
a(lp1529
I20
aaa(lp1530
S'ENC key size'
p1531
a(lp1532
I32
aaa(lp1533
S'MAC key size'
p1534
a(lp1535
I20
aaa(lp1536
S'lambda'
p1537
a(lp1538
I80
aaa(lp1539
S'Zp bits'
p1540
a(lp1541
I80
aaa(lp1542
S'# challenge blocks'
p1543
a(lp1544
I80
aaa(lp1545
S'# threads'
p1546
a(lp1547
I1
aaa(lp1548
g48
a(lp1549
S'512'
p1550
aaatRp1551
ag2
((lp1552
(lp1553
S'Create tag'
p1554
a(lp1555
F0.19003300000000001
aaa(lp1556
S'Create challenge'
p1557
a(lp1558
F0.0045931000000000001
aaa(lp1559
S'Create proof'
p1560
a(lp1561
F0.1160851
aaa(lp1562
S'Verify file'
p1563
a(lp1564
F0.0030360000000000001
aaa(lp1565
S'HEAD'
p1566
a(lp1567
I0
aaa(lp1568
S'GET'
p1569
a(lp1570
I0
aaa(lp1571
S'PUT'
p1572
a(lp1573
I0
aaa(lp1574
S'COPY'
p1575
a(lp1576
I0
aaa(lp1577
S'LIST'
p1578
a(lp1579
I0
aaa(lp1580
S'POST'
p1581
a(lp1582
I0
aaa(lp1583
S'Metadata'
p1584
a(lp1585
S'CPOR:Block size 4096:PRF key size 20:ENC key size 32:MAC key size 20:lambda 80:Zp bits 80:# challenge blocks 80:# threads 1:Filename ../../test-files/testfile_rand_1024KB'
p1586
aaa(lp1587
S'Timestamp'
p1588
a(lp1589
I1347322982
aaa(lp1590
S'Block size'
p1591
a(lp1592
I4096
aaa(lp1593
S'PRF key size'
p1594
a(lp1595
I20
aaa(lp1596
S'ENC key size'
p1597
a(lp1598
I32
aaa(lp1599
S'MAC key size'
p1600
a(lp1601
I20
aaa(lp1602
S'lambda'
p1603
a(lp1604
I80
aaa(lp1605
S'Zp bits'
p1606
a(lp1607
I80
aaa(lp1608
S'# challenge blocks'
p1609
a(lp1610
I80
aaa(lp1611
S'# threads'
p1612
a(lp1613
I1
aaa(lp1614
g48
a(lp1615
S'1024'
p1616
aaatRp1617
ag2
((lp1618
(lp1619
S'Create tag'
p1620
a(lp1621
F0.29730800000000002
aaa(lp1622
S'Create challenge'
p1623
a(lp1624
F0.0043699999999999998
aaa(lp1625
S'Create proof'
p1626
a(lp1627
F0.18811610000000001
aaa(lp1628
S'Verify file'
p1629
a(lp1630
F0.0029451999999999998
aaa(lp1631
S'HEAD'
p1632
a(lp1633
I0
aaa(lp1634
S'GET'
p1635
a(lp1636
I0
aaa(lp1637
S'PUT'
p1638
a(lp1639
I0
aaa(lp1640
S'COPY'
p1641
a(lp1642
I0
aaa(lp1643
S'LIST'
p1644
a(lp1645
I0
aaa(lp1646
S'POST'
p1647
a(lp1648
I0
aaa(lp1649
S'Metadata'
p1650
a(lp1651
S'CPOR:Block size 4096:PRF key size 20:ENC key size 32:MAC key size 20:lambda 80:Zp bits 80:# challenge blocks 80:# threads 1:Filename ../../test-files/testfile_rand_2048KB'
p1652
aaa(lp1653
S'Timestamp'
p1654
a(lp1655
I1347322988
aaa(lp1656
S'Block size'
p1657
a(lp1658
I4096
aaa(lp1659
S'PRF key size'
p1660
a(lp1661
I20
aaa(lp1662
S'ENC key size'
p1663
a(lp1664
I32
aaa(lp1665
S'MAC key size'
p1666
a(lp1667
I20
aaa(lp1668
S'lambda'
p1669
a(lp1670
I80
aaa(lp1671
S'Zp bits'
p1672
a(lp1673
I80
aaa(lp1674
S'# challenge blocks'
p1675
a(lp1676
I80
aaa(lp1677
S'# threads'
p1678
a(lp1679
I1
aaa(lp1680
g48
a(lp1681
S'2048'
p1682
aaatRp1683
ag2
((lp1684
(lp1685
S'Create tag'
p1686
a(lp1687
F0.6228302
aaa(lp1688
S'Create challenge'
p1689
a(lp1690
F0.0037320000000000001
aaa(lp1691
S'Create proof'
p1692
a(lp1693
F0.355298
aaa(lp1694
S'Verify file'
p1695
a(lp1696
F0.002882
aaa(lp1697
S'HEAD'
p1698
a(lp1699
I0
aaa(lp1700
S'GET'
p1701
a(lp1702
I0
aaa(lp1703
S'PUT'
p1704
a(lp1705
I0
aaa(lp1706
S'COPY'
p1707
a(lp1708
I0
aaa(lp1709
S'LIST'
p1710
a(lp1711
I0
aaa(lp1712
S'POST'
p1713
a(lp1714
I0
aaa(lp1715
S'Metadata'
p1716
a(lp1717
S'CPOR:Block size 4096:PRF key size 20:ENC key size 32:MAC key size 20:lambda 80:Zp bits 80:# challenge blocks 80:# threads 1:Filename ../../test-files/testfile_rand_4096KB'
p1718
aaa(lp1719
S'Timestamp'
p1720
a(lp1721
I1347323034
aaa(lp1722
S'Block size'
p1723
a(lp1724
I4096
aaa(lp1725
S'PRF key size'
p1726
a(lp1727
I20
aaa(lp1728
S'ENC key size'
p1729
a(lp1730
I32
aaa(lp1731
S'MAC key size'
p1732
a(lp1733
I20
aaa(lp1734
S'lambda'
p1735
a(lp1736
I80
aaa(lp1737
S'Zp bits'
p1738
a(lp1739
I80
aaa(lp1740
S'# challenge blocks'
p1741
a(lp1742
I80
aaa(lp1743
S'# threads'
p1744
a(lp1745
I1
aaa(lp1746
g48
a(lp1747
S'4096'
p1748
aaatRp1749
ag2
((lp1750
(lp1751
S'Create tag'
p1752
a(lp1753
F9.3079400000000003
aaa(lp1754
S'Create challenge'
p1755
a(lp1756
F0.0046730000000000001
aaa(lp1757
S'Create proof'
p1758
a(lp1759
F6.5087640000000002
aaa(lp1760
S'Verify file'
p1761
a(lp1762
F0.111526
aaa(lp1763
S'HEAD'
p1764
a(lp1765
I0
aaa(lp1766
S'GET'
p1767
a(lp1768
I0
aaa(lp1769
S'PUT'
p1770
a(lp1771
I0
aaa(lp1772
S'COPY'
p1773
a(lp1774
I0
aaa(lp1775
S'LIST'
p1776
a(lp1777
I0
aaa(lp1778
S'POST'
p1779
a(lp1780
I0
aaa(lp1781
S'Metadata'
p1782
a(lp1783
S'CPOR:Block size 4096:PRF key size 20:ENC key size 32:MAC key size 20:lambda 80:Zp bits 80:# challenge blocks 80:# threads 1:Filename ../../test-files/testfile_rand_8192KB'
p1784
aaa(lp1785
S'Timestamp'
p1786
a(lp1787
I1347323092
aaa(lp1788
S'Block size'
p1789
a(lp1790
I4096
aaa(lp1791
S'PRF key size'
p1792
a(lp1793
I20
aaa(lp1794
S'ENC key size'
p1795
a(lp1796
I32
aaa(lp1797
S'MAC key size'
p1798
a(lp1799
I20
aaa(lp1800
S'lambda'
p1801
a(lp1802
I80
aaa(lp1803
S'Zp bits'
p1804
a(lp1805
I80
aaa(lp1806
S'# challenge blocks'
p1807
a(lp1808
I80
aaa(lp1809
S'# threads'
p1810
a(lp1811
I1
aaa(lp1812
g48
a(lp1813
S'8192'
p1814
aaatRp1815
ag2
((lp1816
(lp1817
S'Create tag'
p1818
a(lp1819
F9.8534219000000007
aaa(lp1820
S'Create challenge'
p1821
a(lp1822
F0.092830899999999994
aaa(lp1823
S'Create proof'
p1824
a(lp1825
F13.511065
aaa(lp1826
S'Verify file'
p1827
a(lp1828
F0.11100699999999999
aaa(lp1829
S'HEAD'
p1830
a(lp1831
I0
aaa(lp1832
S'GET'
p1833
a(lp1834
I0
aaa(lp1835
S'PUT'
p1836
a(lp1837
I0
aaa(lp1838
S'COPY'
p1839
a(lp1840
I0
aaa(lp1841
S'LIST'
p1842
a(lp1843
I0
aaa(lp1844
S'POST'
p1845
a(lp1846
I0
aaa(lp1847
S'Metadata'
p1848
a(lp1849
S'CPOR:Block size 4096:PRF key size 20:ENC key size 32:MAC key size 20:lambda 80:Zp bits 80:# challenge blocks 80:# threads 1:Filename ../../test-files/testfile_rand_16384KB'
p1850
aaa(lp1851
S'Timestamp'
p1852
a(lp1853
I1347323231
aaa(lp1854
S'Block size'
p1855
a(lp1856
I4096
aaa(lp1857
S'PRF key size'
p1858
a(lp1859
I20
aaa(lp1860
S'ENC key size'
p1861
a(lp1862
I32
aaa(lp1863
S'MAC key size'
p1864
a(lp1865
I20
aaa(lp1866
S'lambda'
p1867
a(lp1868
I80
aaa(lp1869
S'Zp bits'
p1870
a(lp1871
I80
aaa(lp1872
S'# challenge blocks'
p1873
a(lp1874
I80
aaa(lp1875
S'# threads'
p1876
a(lp1877
I1
aaa(lp1878
g48
a(lp1879
S'16384'
p1880
aaatRp1881
ag2
((lp1882
(lp1883
S'Create tag'
p1884
a(lp1885
F7.423305
aaa(lp1886
S'Create challenge'
p1887
a(lp1888
F0.0045589999999999997
aaa(lp1889
S'Create proof'
p1890
a(lp1891
F15.0268979
aaa(lp1892
S'Verify file'
p1893
a(lp1894
F0.099522100000000002
aaa(lp1895
S'HEAD'
p1896
a(lp1897
I0
aaa(lp1898
S'GET'
p1899
a(lp1900
I0
aaa(lp1901
S'PUT'
p1902
a(lp1903
I0
aaa(lp1904
S'COPY'
p1905
a(lp1906
I0
aaa(lp1907
S'LIST'
p1908
a(lp1909
I0
aaa(lp1910
S'POST'
p1911
a(lp1912
I0
aaa(lp1913
S'Metadata'
p1914
a(lp1915
S'CPOR:Block size 4096:PRF key size 20:ENC key size 32:MAC key size 20:lambda 80:Zp bits 80:# challenge blocks 80:# threads 1:Filename ../../test-files/testfile_rand_32768KB'
p1916
aaa(lp1917
S'Timestamp'
p1918
a(lp1919
I1347323480
aaa(lp1920
S'Block size'
p1921
a(lp1922
I4096
aaa(lp1923
S'PRF key size'
p1924
a(lp1925
I20
aaa(lp1926
S'ENC key size'
p1927
a(lp1928
I32
aaa(lp1929
S'MAC key size'
p1930
a(lp1931
I20
aaa(lp1932
S'lambda'
p1933
a(lp1934
I80
aaa(lp1935
S'Zp bits'
p1936
a(lp1937
I80
aaa(lp1938
S'# challenge blocks'
p1939
a(lp1940
I80
aaa(lp1941
S'# threads'
p1942
a(lp1943
I1
aaa(lp1944
g48
a(lp1945
S'32768'
p1946
aaatRp1947
ag2
((lp1948
(lp1949
S'Create tag'
p1950
a(lp1951
F41.329160000000002
aaa(lp1952
S'Create challenge'
p1953
a(lp1954
F0.0037889
aaa(lp1955
S'Create proof'
p1956
a(lp1957
F10.755940900000001
aaa(lp1958
S'Verify file'
p1959
a(lp1960
F0.0033619000000000001
aaa(lp1961
S'HEAD'
p1962
a(lp1963
I0
aaa(lp1964
S'GET'
p1965
a(lp1966
I0
aaa(lp1967
S'PUT'
p1968
a(lp1969
I0
aaa(lp1970
S'COPY'
p1971
a(lp1972
I0
aaa(lp1973
S'LIST'
p1974
a(lp1975
I0
aaa(lp1976
S'POST'
p1977
a(lp1978
I0
aaa(lp1979
S'Metadata'
p1980
a(lp1981
S'CPOR:Block size 4096:PRF key size 20:ENC key size 32:MAC key size 20:lambda 80:Zp bits 80:# challenge blocks 80:# threads 1:Filename ../../test-files/testfile_rand_65536KB'
p1982
aaa(lp1983
S'Timestamp'
p1984
a(lp1985
I1347323997
aaa(lp1986
S'Block size'
p1987
a(lp1988
I4096
aaa(lp1989
S'PRF key size'
p1990
a(lp1991
I20
aaa(lp1992
S'ENC key size'
p1993
a(lp1994
I32
aaa(lp1995
S'MAC key size'
p1996
a(lp1997
I20
aaa(lp1998
S'lambda'
p1999
a(lp2000
I80
aaa(lp2001
S'Zp bits'
p2002
a(lp2003
I80
aaa(lp2004
S'# challenge blocks'
p2005
a(lp2006
I80
aaa(lp2007
S'# threads'
p2008
a(lp2009
I1
aaa(lp2010
g48
a(lp2011
S'65536'
p2012
aaatRp2013
ag2
((lp2014
(lp2015
S'Create tag'
p2016
a(lp2017
F76.709405899999993
aaa(lp2018
S'Create challenge'
p2019
a(lp2020
F0.0042380999999999999
aaa(lp2021
S'Create proof'
p2022
a(lp2023
F92.607975999999994
aaa(lp2024
S'Verify file'
p2025
a(lp2026
F0.0028868000000000001
aaa(lp2027
S'HEAD'
p2028
a(lp2029
I0
aaa(lp2030
S'GET'
p2031
a(lp2032
I0
aaa(lp2033
S'PUT'
p2034
a(lp2035
I0
aaa(lp2036
S'COPY'
p2037
a(lp2038
I0
aaa(lp2039
S'LIST'
p2040
a(lp2041
I0
aaa(lp2042
S'POST'
p2043
a(lp2044
I0
aaa(lp2045
S'Metadata'
p2046
a(lp2047
S'CPOR:Block size 4096:PRF key size 20:ENC key size 32:MAC key size 20:lambda 80:Zp bits 80:# challenge blocks 80:# threads 1:Filename ../../test-files/testfile_rand_131072KB'
p2048
aaa(lp2049
S'Timestamp'
p2050
a(lp2051
I1347325106
aaa(lp2052
S'Block size'
p2053
a(lp2054
I4096
aaa(lp2055
S'PRF key size'
p2056
a(lp2057
I20
aaa(lp2058
S'ENC key size'
p2059
a(lp2060
I32
aaa(lp2061
S'MAC key size'
p2062
a(lp2063
I20
aaa(lp2064
S'lambda'
p2065
a(lp2066
I80
aaa(lp2067
S'Zp bits'
p2068
a(lp2069
I80
aaa(lp2070
S'# challenge blocks'
p2071
a(lp2072
I80
aaa(lp2073
S'# threads'
p2074
a(lp2075
I1
aaa(lp2076
g48
a(lp2077
S'131072'
p2078
aaatRp2079
ag2
((lp2080
(lp2081
S'Create tag'
p2082
a(lp2083
F188.8296411
aaa(lp2084
S'Create challenge'
p2085
a(lp2086
F0.11203100000000001
aaa(lp2087
S'Create proof'
p2088
a(lp2089
F127.0342131
aaa(lp2090
S'Verify file'
p2091
a(lp2092
F0.099180000000000004
aaa(lp2093
S'HEAD'
p2094
a(lp2095
I0
aaa(lp2096
S'GET'
p2097
a(lp2098
I0
aaa(lp2099
S'PUT'
p2100
a(lp2101
I0
aaa(lp2102
S'COPY'
p2103
a(lp2104
I0
aaa(lp2105
S'LIST'
p2106
a(lp2107
I0
aaa(lp2108
S'POST'
p2109
a(lp2110
I0
aaa(lp2111
S'Metadata'
p2112
a(lp2113
S'CPOR:Block size 4096:PRF key size 20:ENC key size 32:MAC key size 20:lambda 80:Zp bits 80:# challenge blocks 80:# threads 1:Filename ../../test-files/testfile_rand_262144KB'
p2114
aaa(lp2115
S'Timestamp'
p2116
a(lp2117
I1347327218
aaa(lp2118
S'Block size'
p2119
a(lp2120
I4096
aaa(lp2121
S'PRF key size'
p2122
a(lp2123
I20
aaa(lp2124
S'ENC key size'
p2125
a(lp2126
I32
aaa(lp2127
S'MAC key size'
p2128
a(lp2129
I20
aaa(lp2130
S'lambda'
p2131
a(lp2132
I80
aaa(lp2133
S'Zp bits'
p2134
a(lp2135
I80
aaa(lp2136
S'# challenge blocks'
p2137
a(lp2138
I80
aaa(lp2139
S'# threads'
p2140
a(lp2141
I1
aaa(lp2142
g48
a(lp2143
S'262144'
p2144
aaatRp2145
ag2
((lp2146
(lp2147
S'Create tag'
p2148
a(lp2149
F507.15899899999999
aaa(lp2150
S'Create challenge'
p2151
a(lp2152
F0.0043962000000000003
aaa(lp2153
S'Create proof'
p2154
a(lp2155
F265.0821171
aaa(lp2156
S'Verify file'
p2157
a(lp2158
F0.0029150999999999999
aaa(lp2159
S'HEAD'
p2160
a(lp2161
I0
aaa(lp2162
S'GET'
p2163
a(lp2164
I0
aaa(lp2165
S'PUT'
p2166
a(lp2167
I0
aaa(lp2168
S'COPY'
p2169
a(lp2170
I0
aaa(lp2171
S'LIST'
p2172
a(lp2173
I0
aaa(lp2174
S'POST'
p2175
a(lp2176
I0
aaa(lp2177
S'Metadata'
p2178
a(lp2179
S'CPOR:Block size 4096:PRF key size 20:ENC key size 32:MAC key size 20:lambda 80:Zp bits 80:# challenge blocks 80:# threads 1:Filename ../../test-files/testfile_rand_524288KB'
p2180
aaa(lp2181
S'Timestamp'
p2182
a(lp2183
I1347332683
aaa(lp2184
S'Block size'
p2185
a(lp2186
I4096
aaa(lp2187
S'PRF key size'
p2188
a(lp2189
I20
aaa(lp2190
S'ENC key size'
p2191
a(lp2192
I32
aaa(lp2193
S'MAC key size'
p2194
a(lp2195
I20
aaa(lp2196
S'lambda'
p2197
a(lp2198
I80
aaa(lp2199
S'Zp bits'
p2200
a(lp2201
I80
aaa(lp2202
S'# challenge blocks'
p2203
a(lp2204
I80
aaa(lp2205
S'# threads'
p2206
a(lp2207
I1
aaa(lp2208
g48
a(lp2209
S'524288'
p2210
aaatRp2211
ag2
((lp2212
(lp2213
S'Create tag'
p2214
a(lp2215
F0.020381900000000001
aaa(lp2216
S'Create challenge'
p2217
a(lp2218
F0.00089789999999999998
aaa(lp2219
S'Create proof'
p2220
a(lp2221
F1.0000000000000001e-05
aaa(lp2222
S'Verify file'
p2223
a(lp2224
F2.48e-05
aaa(lp2225
S'HEAD'
p2226
a(lp2227
I0
aaa(lp2228
S'GET'
p2229
a(lp2230
I0
aaa(lp2231
S'PUT'
p2232
a(lp2233
I0
aaa(lp2234
S'COPY'
p2235
a(lp2236
I0
aaa(lp2237
S'LIST'
p2238
a(lp2239
I0
aaa(lp2240
S'POST'
p2241
a(lp2242
I0
aaa(lp2243
S'Metadata'
p2244
a(lp2245
S'CPOR:Block size 4096:PRF key size 20:ENC key size 32:MAC key size 20:lambda 80:Zp bits 80:# challenge blocks 80:# threads 1:Filename ../../test-files/testfile_rand_1048576KB'
p2246
aaa(lp2247
S'Timestamp'
p2248
a(lp2249
I1347342649
aaa(lp2250
S'Block size'
p2251
a(lp2252
I4096
aaa(lp2253
S'PRF key size'
p2254
a(lp2255
I20
aaa(lp2256
S'ENC key size'
p2257
a(lp2258
I32
aaa(lp2259
S'MAC key size'
p2260
a(lp2261
I20
aaa(lp2262
S'lambda'
p2263
a(lp2264
I80
aaa(lp2265
S'Zp bits'
p2266
a(lp2267
I80
aaa(lp2268
S'# challenge blocks'
p2269
a(lp2270
I80
aaa(lp2271
S'# threads'
p2272
a(lp2273
I1
aaa(lp2274
g48
a(lp2275
S'1048576'
p2276
aaatRp2277
ag2
((lp2278
(lp2279
S'Get key'
p2280
a(lp2281
F5.0000000000000004e-06
aaa(lp2282
S'Create tag'
p2283
a(lp2284
F0.023
aaa(lp2285
S'Create challenge'
p2286
a(lp2287
F3.3899999999999997e-05
aaa(lp2288
S'Create proof'
p2289
a(lp2290
F0.00061890000000000003
aaa(lp2291
S'Verify file'
p2292
a(lp2293
F0.00084590000000000002
aaa(lp2294
S'HEAD'
p2295
a(lp2296
I0
aaa(lp2297
S'GET'
p2298
a(lp2299
I0
aaa(lp2300
S'PUT'
p2301
a(lp2302
I0
aaa(lp2303
S'COPY'
p2304
a(lp2305
I0
aaa(lp2306
S'LIST'
p2307
a(lp2308
I0
aaa(lp2309
S'POST'
p2310
a(lp2311
I0
aaa(lp2312
S'Metadata'
p2313
a(lp2314
S'SEPDP:Block size 4096:PRF key size 20:PRP key size 16:AE key size 16:years 1:minutes 1312:# challenge blocks 512:# threads 1:Filename ../../test-files/testfile_rand_2KB'
p2315
aaa(lp2316
S'Timestamp'
p2317
a(lp2318
I1347322955
aaa(lp2319
S'Block size'
p2320
a(lp2321
I4096
aaa(lp2322
S'PRF key size'
p2323
a(lp2324
I20
aaa(lp2325
S'PRP key size'
p2326
a(lp2327
I16
aaa(lp2328
S'AE key size'
p2329
a(lp2330
I16
aaa(lp2331
S'years'
p2332
a(lp2333
I1
aaa(lp2334
S'minutes'
p2335
a(lp2336
I1312
aaa(lp2337
S'# challenge blocks'
p2338
a(lp2339
I512
aaa(lp2340
S'# threads'
p2341
a(lp2342
I1
aaa(lp2343
g48
a(lp2344
S'2'
aaatRp2345
ag2
((lp2346
(lp2347
S'Get key'
p2348
a(lp2349
F7.9000000000000006e-06
aaa(lp2350
S'Create tag'
p2351
a(lp2352
F0.034508900000000002
aaa(lp2353
S'Create challenge'
p2354
a(lp2355
F4.9100000000000001e-05
aaa(lp2356
S'Create proof'
p2357
a(lp2358
F0.00063199999999999997
aaa(lp2359
S'Verify file'
p2360
a(lp2361
F0.0010158999999999999
aaa(lp2362
S'HEAD'
p2363
a(lp2364
I0
aaa(lp2365
S'GET'
p2366
a(lp2367
I0
aaa(lp2368
S'PUT'
p2369
a(lp2370
I0
aaa(lp2371
S'COPY'
p2372
a(lp2373
I0
aaa(lp2374
S'LIST'
p2375
a(lp2376
I0
aaa(lp2377
S'POST'
p2378
a(lp2379
I0
aaa(lp2380
S'Metadata'
p2381
a(lp2382
S'SEPDP:Block size 4096:PRF key size 20:PRP key size 16:AE key size 16:years 1:minutes 1312:# challenge blocks 512:# threads 1:Filename ../../test-files/testfile_rand_4KB'
p2383
aaa(lp2384
S'Timestamp'
p2385
a(lp2386
I1347322958
aaa(lp2387
S'Block size'
p2388
a(lp2389
I4096
aaa(lp2390
S'PRF key size'
p2391
a(lp2392
I20
aaa(lp2393
S'PRP key size'
p2394
a(lp2395
I16
aaa(lp2396
S'AE key size'
p2397
a(lp2398
I16
aaa(lp2399
S'years'
p2400
a(lp2401
I1
aaa(lp2402
S'minutes'
p2403
a(lp2404
I1312
aaa(lp2405
S'# challenge blocks'
p2406
a(lp2407
I512
aaa(lp2408
S'# threads'
p2409
a(lp2410
I1
aaa(lp2411
g48
a(lp2412
S'4'
aaatRp2413
ag2
((lp2414
(lp2415
S'Get key'
p2416
a(lp2417
F6.1999999999999999e-06
aaa(lp2418
S'Create tag'
p2419
a(lp2420
F0.037104100000000001
aaa(lp2421
S'Create challenge'
p2422
a(lp2423
F3.4999999999999997e-05
aaa(lp2424
S'Create proof'
p2425
a(lp2426
F0.00079009999999999996
aaa(lp2427
S'Verify file'
p2428
a(lp2429
F0.00088190000000000002
aaa(lp2430
S'HEAD'
p2431
a(lp2432
I0
aaa(lp2433
S'GET'
p2434
a(lp2435
I0
aaa(lp2436
S'PUT'
p2437
a(lp2438
I0
aaa(lp2439
S'COPY'
p2440
a(lp2441
I0
aaa(lp2442
S'LIST'
p2443
a(lp2444
I0
aaa(lp2445
S'POST'
p2446
a(lp2447
I0
aaa(lp2448
S'Metadata'
p2449
a(lp2450
S'SEPDP:Block size 4096:PRF key size 20:PRP key size 16:AE key size 16:years 1:minutes 1312:# challenge blocks 512:# threads 1:Filename ../../test-files/testfile_rand_8KB'
p2451
aaa(lp2452
S'Timestamp'
p2453
a(lp2454
I1347322961
aaa(lp2455
S'Block size'
p2456
a(lp2457
I4096
aaa(lp2458
S'PRF key size'
p2459
a(lp2460
I20
aaa(lp2461
S'PRP key size'
p2462
a(lp2463
I16
aaa(lp2464
S'AE key size'
p2465
a(lp2466
I16
aaa(lp2467
S'years'
p2468
a(lp2469
I1
aaa(lp2470
S'minutes'
p2471
a(lp2472
I1312
aaa(lp2473
S'# challenge blocks'
p2474
a(lp2475
I512
aaa(lp2476
S'# threads'
p2477
a(lp2478
I1
aaa(lp2479
g48
a(lp2480
S'8'
aaatRp2481
ag2
((lp2482
(lp2483
S'Get key'
p2484
a(lp2485
F6.1999999999999999e-06
aaa(lp2486
S'Create tag'
p2487
a(lp2488
F0.019105899999999999
aaa(lp2489
S'Create challenge'
p2490
a(lp2491
F3.4100000000000002e-05
aaa(lp2492
S'Create proof'
p2493
a(lp2494
F0.0010258999999999999
aaa(lp2495
S'Verify file'
p2496
a(lp2497
F0.00083589999999999999
aaa(lp2498
S'HEAD'
p2499
a(lp2500
I0
aaa(lp2501
S'GET'
p2502
a(lp2503
I0
aaa(lp2504
S'PUT'
p2505
a(lp2506
I0
aaa(lp2507
S'COPY'
p2508
a(lp2509
I0
aaa(lp2510
S'LIST'
p2511
a(lp2512
I0
aaa(lp2513
S'POST'
p2514
a(lp2515
I0
aaa(lp2516
S'Metadata'
p2517
a(lp2518
S'SEPDP:Block size 4096:PRF key size 20:PRP key size 16:AE key size 16:years 1:minutes 1312:# challenge blocks 512:# threads 1:Filename ../../test-files/testfile_rand_16KB'
p2519
aaa(lp2520
S'Timestamp'
p2521
a(lp2522
I1347322963
aaa(lp2523
S'Block size'
p2524
a(lp2525
I4096
aaa(lp2526
S'PRF key size'
p2527
a(lp2528
I20
aaa(lp2529
S'PRP key size'
p2530
a(lp2531
I16
aaa(lp2532
S'AE key size'
p2533
a(lp2534
I16
aaa(lp2535
S'years'
p2536
a(lp2537
I1
aaa(lp2538
S'minutes'
p2539
a(lp2540
I1312
aaa(lp2541
S'# challenge blocks'
p2542
a(lp2543
I512
aaa(lp2544
S'# threads'
p2545
a(lp2546
I1
aaa(lp2547
g48
a(lp2548
S'16'
p2549
aaatRp2550
ag2
((lp2551
(lp2552
S'Get key'
p2553
a(lp2554
F6.9e-06
aaa(lp2555
S'Create tag'
p2556
a(lp2557
F0.032919900000000002
aaa(lp2558
S'Create challenge'
p2559
a(lp2560
F3.3899999999999997e-05
aaa(lp2561
S'Create proof'
p2562
a(lp2563
F0.0016141
aaa(lp2564
S'Verify file'
p2565
a(lp2566
F0.0008721
aaa(lp2567
S'HEAD'
p2568
a(lp2569
I0
aaa(lp2570
S'GET'
p2571
a(lp2572
I0
aaa(lp2573
S'PUT'
p2574
a(lp2575
I0
aaa(lp2576
S'COPY'
p2577
a(lp2578
I0
aaa(lp2579
S'LIST'
p2580
a(lp2581
I0
aaa(lp2582
S'POST'
p2583
a(lp2584
I0
aaa(lp2585
S'Metadata'
p2586
a(lp2587
S'SEPDP:Block size 4096:PRF key size 20:PRP key size 16:AE key size 16:years 1:minutes 1312:# challenge blocks 512:# threads 1:Filename ../../test-files/testfile_rand_32KB'
p2588
aaa(lp2589
S'Timestamp'
p2590
a(lp2591
I1347322966
aaa(lp2592
S'Block size'
p2593
a(lp2594
I4096
aaa(lp2595
S'PRF key size'
p2596
a(lp2597
I20
aaa(lp2598
S'PRP key size'
p2599
a(lp2600
I16
aaa(lp2601
S'AE key size'
p2602
a(lp2603
I16
aaa(lp2604
S'years'
p2605
a(lp2606
I1
aaa(lp2607
S'minutes'
p2608
a(lp2609
I1312
aaa(lp2610
S'# challenge blocks'
p2611
a(lp2612
I512
aaa(lp2613
S'# threads'
p2614
a(lp2615
I1
aaa(lp2616
g48
a(lp2617
S'32'
p2618
aaatRp2619
ag2
((lp2620
(lp2621
S'Get key'
p2622
a(lp2623
F6.0000000000000002e-06
aaa(lp2624
S'Create tag'
p2625
a(lp2626
F0.023448
aaa(lp2627
S'Create challenge'
p2628
a(lp2629
F3.4100000000000002e-05
aaa(lp2630
S'Create proof'
p2631
a(lp2632
F0.0028532000000000002
aaa(lp2633
S'Verify file'
p2634
a(lp2635
F0.00096889999999999997
aaa(lp2636
S'HEAD'
p2637
a(lp2638
I0
aaa(lp2639
S'GET'
p2640
a(lp2641
I0
aaa(lp2642
S'PUT'
p2643
a(lp2644
I0
aaa(lp2645
S'COPY'
p2646
a(lp2647
I0
aaa(lp2648
S'LIST'
p2649
a(lp2650
I0
aaa(lp2651
S'POST'
p2652
a(lp2653
I0
aaa(lp2654
S'Metadata'
p2655
a(lp2656
S'SEPDP:Block size 4096:PRF key size 20:PRP key size 16:AE key size 16:years 1:minutes 1312:# challenge blocks 512:# threads 1:Filename ../../test-files/testfile_rand_64KB'
p2657
aaa(lp2658
S'Timestamp'
p2659
a(lp2660
I1347322968
aaa(lp2661
S'Block size'
p2662
a(lp2663
I4096
aaa(lp2664
S'PRF key size'
p2665
a(lp2666
I20
aaa(lp2667
S'PRP key size'
p2668
a(lp2669
I16
aaa(lp2670
S'AE key size'
p2671
a(lp2672
I16
aaa(lp2673
S'years'
p2674
a(lp2675
I1
aaa(lp2676
S'minutes'
p2677
a(lp2678
I1312
aaa(lp2679
S'# challenge blocks'
p2680
a(lp2681
I512
aaa(lp2682
S'# threads'
p2683
a(lp2684
I1
aaa(lp2685
g48
a(lp2686
S'64'
p2687
aaatRp2688
ag2
((lp2689
(lp2690
S'Get key'
p2691
a(lp2692
F5.0000000000000004e-06
aaa(lp2693
S'Create tag'
p2694
a(lp2695
F0.033026899999999998
aaa(lp2696
S'Create challenge'
p2697
a(lp2698
F3.4999999999999997e-05
aaa(lp2699
S'Create proof'
p2700
a(lp2701
F0.0051209999999999997
aaa(lp2702
S'Verify file'
p2703
a(lp2704
F0.00098799999999999995
aaa(lp2705
S'HEAD'
p2706
a(lp2707
I0
aaa(lp2708
S'GET'
p2709
a(lp2710
I0
aaa(lp2711
S'PUT'
p2712
a(lp2713
I0
aaa(lp2714
S'COPY'
p2715
a(lp2716
I0
aaa(lp2717
S'LIST'
p2718
a(lp2719
I0
aaa(lp2720
S'POST'
p2721
a(lp2722
I0
aaa(lp2723
S'Metadata'
p2724
a(lp2725
S'SEPDP:Block size 4096:PRF key size 20:PRP key size 16:AE key size 16:years 1:minutes 1312:# challenge blocks 512:# threads 1:Filename ../../test-files/testfile_rand_128KB'
p2726
aaa(lp2727
S'Timestamp'
p2728
a(lp2729
I1347322971
aaa(lp2730
S'Block size'
p2731
a(lp2732
I4096
aaa(lp2733
S'PRF key size'
p2734
a(lp2735
I20
aaa(lp2736
S'PRP key size'
p2737
a(lp2738
I16
aaa(lp2739
S'AE key size'
p2740
a(lp2741
I16
aaa(lp2742
S'years'
p2743
a(lp2744
I1
aaa(lp2745
S'minutes'
p2746
a(lp2747
I1312
aaa(lp2748
S'# challenge blocks'
p2749
a(lp2750
I512
aaa(lp2751
S'# threads'
p2752
a(lp2753
I1
aaa(lp2754
g48
a(lp2755
S'128'
p2756
aaatRp2757
ag2
((lp2758
(lp2759
S'Get key'
p2760
a(lp2761
F6.1999999999999999e-06
aaa(lp2762
S'Create tag'
p2763
a(lp2764
F0.033945999999999997
aaa(lp2765
S'Create challenge'
p2766
a(lp2767
F3.4799999999999999e-05
aaa(lp2768
S'Create proof'
p2769
a(lp2770
F0.0094500000000000001
aaa(lp2771
S'Verify file'
p2772
a(lp2773
F0.00084500000000000005
aaa(lp2774
S'HEAD'
p2775
a(lp2776
I0
aaa(lp2777
S'GET'
p2778
a(lp2779
I0
aaa(lp2780
S'PUT'
p2781
a(lp2782
I0
aaa(lp2783
S'COPY'
p2784
a(lp2785
I0
aaa(lp2786
S'LIST'
p2787
a(lp2788
I0
aaa(lp2789
S'POST'
p2790
a(lp2791
I0
aaa(lp2792
S'Metadata'
p2793
a(lp2794
S'SEPDP:Block size 4096:PRF key size 20:PRP key size 16:AE key size 16:years 1:minutes 1312:# challenge blocks 512:# threads 1:Filename ../../test-files/testfile_rand_256KB'
p2795
aaa(lp2796
S'Timestamp'
p2797
a(lp2798
I1347322974
aaa(lp2799
S'Block size'
p2800
a(lp2801
I4096
aaa(lp2802
S'PRF key size'
p2803
a(lp2804
I20
aaa(lp2805
S'PRP key size'
p2806
a(lp2807
I16
aaa(lp2808
S'AE key size'
p2809
a(lp2810
I16
aaa(lp2811
S'years'
p2812
a(lp2813
I1
aaa(lp2814
S'minutes'
p2815
a(lp2816
I1312
aaa(lp2817
S'# challenge blocks'
p2818
a(lp2819
I512
aaa(lp2820
S'# threads'
p2821
a(lp2822
I1
aaa(lp2823
g48
a(lp2824
S'256'
p2825
aaatRp2826
ag2
((lp2827
(lp2828
S'Get key'
p2829
a(lp2830
F6.1999999999999999e-06
aaa(lp2831
S'Create tag'
p2832
a(lp2833
F0.037836099999999998
aaa(lp2834
S'Create challenge'
p2835
a(lp2836
F4.1e-05
aaa(lp2837
S'Create proof'
p2838
a(lp2839
F0.018808100000000001
aaa(lp2840
S'Verify file'
p2841
a(lp2842
F0.00087310000000000003
aaa(lp2843
S'HEAD'
p2844
a(lp2845
I0
aaa(lp2846
S'GET'
p2847
a(lp2848
I0
aaa(lp2849
S'PUT'
p2850
a(lp2851
I0
aaa(lp2852
S'COPY'
p2853
a(lp2854
I0
aaa(lp2855
S'LIST'
p2856
a(lp2857
I0
aaa(lp2858
S'POST'
p2859
a(lp2860
I0
aaa(lp2861
S'Metadata'
p2862
a(lp2863
S'SEPDP:Block size 4096:PRF key size 20:PRP key size 16:AE key size 16:years 1:minutes 1312:# challenge blocks 512:# threads 1:Filename ../../test-files/testfile_rand_512KB'
p2864
aaa(lp2865
S'Timestamp'
p2866
a(lp2867
I1347322978
aaa(lp2868
S'Block size'
p2869
a(lp2870
I4096
aaa(lp2871
S'PRF key size'
p2872
a(lp2873
I20
aaa(lp2874
S'PRP key size'
p2875
a(lp2876
I16
aaa(lp2877
S'AE key size'
p2878
a(lp2879
I16
aaa(lp2880
S'years'
p2881
a(lp2882
I1
aaa(lp2883
S'minutes'
p2884
a(lp2885
I1312
aaa(lp2886
S'# challenge blocks'
p2887
a(lp2888
I512
aaa(lp2889
S'# threads'
p2890
a(lp2891
I1
aaa(lp2892
g48
a(lp2893
S'512'
p2894
aaatRp2895
ag2
((lp2896
(lp2897
S'Get key'
p2898
a(lp2899
F6.0000000000000002e-06
aaa(lp2900
S'Create tag'
p2901
a(lp2902
F0.074136999999999995
aaa(lp2903
S'Create challenge'
p2904
a(lp2905
F4.8199999999999999e-05
aaa(lp2906
S'Create proof'
p2907
a(lp2908
F0.042840000000000003
aaa(lp2909
S'Verify file'
p2910
a(lp2911
F0.001003
aaa(lp2912
S'HEAD'
p2913
a(lp2914
I0
aaa(lp2915
S'GET'
p2916
a(lp2917
I0
aaa(lp2918
S'PUT'
p2919
a(lp2920
I0
aaa(lp2921
S'COPY'
p2922
a(lp2923
I0
aaa(lp2924
S'LIST'
p2925
a(lp2926
I0
aaa(lp2927
S'POST'
p2928
a(lp2929
I0
aaa(lp2930
S'Metadata'
p2931
a(lp2932
S'SEPDP:Block size 4096:PRF key size 20:PRP key size 16:AE key size 16:years 1:minutes 1312:# challenge blocks 512:# threads 1:Filename ../../test-files/testfile_rand_1024KB'
p2933
aaa(lp2934
S'Timestamp'
p2935
a(lp2936
I1347322982
aaa(lp2937
S'Block size'
p2938
a(lp2939
I4096
aaa(lp2940
S'PRF key size'
p2941
a(lp2942
I20
aaa(lp2943
S'PRP key size'
p2944
a(lp2945
I16
aaa(lp2946
S'AE key size'
p2947
a(lp2948
I16
aaa(lp2949
S'years'
p2950
a(lp2951
I1
aaa(lp2952
S'minutes'
p2953
a(lp2954
I1312
aaa(lp2955
S'# challenge blocks'
p2956
a(lp2957
I512
aaa(lp2958
S'# threads'
p2959
a(lp2960
I1
aaa(lp2961
g48
a(lp2962
S'1024'
p2963
aaatRp2964
ag2
((lp2965
(lp2966
S'Get key'
p2967
a(lp2968
F6.0000000000000002e-06
aaa(lp2969
S'Create tag'
p2970
a(lp2971
F0.1231482
aaa(lp2972
S'Create challenge'
p2973
a(lp2974
F3.6000000000000001e-05
aaa(lp2975
S'Create proof'
p2976
a(lp2977
F0.080534900000000006
aaa(lp2978
S'Verify file'
p2979
a(lp2980
F0.00087690000000000001
aaa(lp2981
S'HEAD'
p2982
a(lp2983
I0
aaa(lp2984
S'GET'
p2985
a(lp2986
I0
aaa(lp2987
S'PUT'
p2988
a(lp2989
I0
aaa(lp2990
S'COPY'
p2991
a(lp2992
I0
aaa(lp2993
S'LIST'
p2994
a(lp2995
I0
aaa(lp2996
S'POST'
p2997
a(lp2998
I0
aaa(lp2999
S'Metadata'
p3000
a(lp3001
S'SEPDP:Block size 4096:PRF key size 20:PRP key size 16:AE key size 16:years 1:minutes 1312:# challenge blocks 512:# threads 1:Filename ../../test-files/testfile_rand_2048KB'
p3002
aaa(lp3003
S'Timestamp'
p3004
a(lp3005
I1347322988
aaa(lp3006
S'Block size'
p3007
a(lp3008
I4096
aaa(lp3009
S'PRF key size'
p3010
a(lp3011
I20
aaa(lp3012
S'PRP key size'
p3013
a(lp3014
I16
aaa(lp3015
S'AE key size'
p3016
a(lp3017
I16
aaa(lp3018
S'years'
p3019
a(lp3020
I1
aaa(lp3021
S'minutes'
p3022
a(lp3023
I1312
aaa(lp3024
S'# challenge blocks'
p3025
a(lp3026
I512
aaa(lp3027
S'# threads'
p3028
a(lp3029
I1
aaa(lp3030
g48
a(lp3031
S'2048'
p3032
aaatRp3033
ag2
((lp3034
(lp3035
S'Get key'
p3036
a(lp3037
F6.1999999999999999e-06
aaa(lp3038
S'Create tag'
p3039
a(lp3040
F0.1162181
aaa(lp3041
S'Create challenge'
p3042
a(lp3043
F3.6000000000000001e-05
aaa(lp3044
S'Create proof'
p3045
a(lp3046
F0.072112999999999997
aaa(lp3047
S'Verify file'
p3048
a(lp3049
F0.00088999999999999995
aaa(lp3050
S'HEAD'
p3051
a(lp3052
I0
aaa(lp3053
S'GET'
p3054
a(lp3055
I0
aaa(lp3056
S'PUT'
p3057
a(lp3058
I0
aaa(lp3059
S'COPY'
p3060
a(lp3061
I0
aaa(lp3062
S'LIST'
p3063
a(lp3064
I0
aaa(lp3065
S'POST'
p3066
a(lp3067
I0
aaa(lp3068
S'Metadata'
p3069
a(lp3070
S'SEPDP:Block size 4096:PRF key size 20:PRP key size 16:AE key size 16:years 1:minutes 1312:# challenge blocks 512:# threads 1:Filename ../../test-files/testfile_rand_4096KB'
p3071
aaa(lp3072
S'Timestamp'
p3073
a(lp3074
I1347323035
aaa(lp3075
S'Block size'
p3076
a(lp3077
I4096
aaa(lp3078
S'PRF key size'
p3079
a(lp3080
I20
aaa(lp3081
S'PRP key size'
p3082
a(lp3083
I16
aaa(lp3084
S'AE key size'
p3085
a(lp3086
I16
aaa(lp3087
S'years'
p3088
a(lp3089
I1
aaa(lp3090
S'minutes'
p3091
a(lp3092
I1312
aaa(lp3093
S'# challenge blocks'
p3094
a(lp3095
I512
aaa(lp3096
S'# threads'
p3097
a(lp3098
I1
aaa(lp3099
g48
a(lp3100
S'4096'
p3101
aaatRp3102
ag2
((lp3103
(lp3104
S'Get key'
p3105
a(lp3106
F5.0000000000000004e-06
aaa(lp3107
S'Create tag'
p3108
a(lp3109
F1.2771721
aaa(lp3110
S'Create challenge'
p3111
a(lp3112
F4.4799999999999998e-05
aaa(lp3113
S'Create proof'
p3114
a(lp3115
F0.9247069
aaa(lp3116
S'Verify file'
p3117
a(lp3118
F0.0010859999999999999
aaa(lp3119
S'HEAD'
p3120
a(lp3121
I0
aaa(lp3122
S'GET'
p3123
a(lp3124
I0
aaa(lp3125
S'PUT'
p3126
a(lp3127
I0
aaa(lp3128
S'COPY'
p3129
a(lp3130
I0
aaa(lp3131
S'LIST'
p3132
a(lp3133
I0
aaa(lp3134
S'POST'
p3135
a(lp3136
I0
aaa(lp3137
S'Metadata'
p3138
a(lp3139
S'SEPDP:Block size 4096:PRF key size 20:PRP key size 16:AE key size 16:years 1:minutes 1312:# challenge blocks 512:# threads 1:Filename ../../test-files/testfile_rand_8192KB'
p3140
aaa(lp3141
S'Timestamp'
p3142
a(lp3143
I1347323100
aaa(lp3144
S'Block size'
p3145
a(lp3146
I4096
aaa(lp3147
S'PRF key size'
p3148
a(lp3149
I20
aaa(lp3150
S'PRP key size'
p3151
a(lp3152
I16
aaa(lp3153
S'AE key size'
p3154
a(lp3155
I16
aaa(lp3156
S'years'
p3157
a(lp3158
I1
aaa(lp3159
S'minutes'
p3160
a(lp3161
I1312
aaa(lp3162
S'# challenge blocks'
p3163
a(lp3164
I512
aaa(lp3165
S'# threads'
p3166
a(lp3167
I1
aaa(lp3168
g48
a(lp3169
S'8192'
p3170
aaatRp3171
ag2
((lp3172
(lp3173
S'Get key'
p3174
a(lp3175
F6.0000000000000002e-06
aaa(lp3176
S'Create tag'
p3177
a(lp3178
F1.3358699999999999
aaa(lp3179
S'Create challenge'
p3180
a(lp3181
F4.8199999999999999e-05
aaa(lp3182
S'Create proof'
p3183
a(lp3184
F0.91530800000000001
aaa(lp3185
S'Verify file'
p3186
a(lp3187
F0.00096920000000000003
aaa(lp3188
S'HEAD'
p3189
a(lp3190
I0
aaa(lp3191
S'GET'
p3192
a(lp3193
I0
aaa(lp3194
S'PUT'
p3195
a(lp3196
I0
aaa(lp3197
S'COPY'
p3198
a(lp3199
I0
aaa(lp3200
S'LIST'
p3201
a(lp3202
I0
aaa(lp3203
S'POST'
p3204
a(lp3205
I0
aaa(lp3206
S'Metadata'
p3207
a(lp3208
S'SEPDP:Block size 4096:PRF key size 20:PRP key size 16:AE key size 16:years 1:minutes 1312:# challenge blocks 512:# threads 1:Filename ../../test-files/testfile_rand_16384KB'
p3209
aaa(lp3210
S'Timestamp'
p3211
a(lp3212
I1347323241
aaa(lp3213
S'Block size'
p3214
a(lp3215
I4096
aaa(lp3216
S'PRF key size'
p3217
a(lp3218
I20
aaa(lp3219
S'PRP key size'
p3220
a(lp3221
I16
aaa(lp3222
S'AE key size'
p3223
a(lp3224
I16
aaa(lp3225
S'years'
p3226
a(lp3227
I1
aaa(lp3228
S'minutes'
p3229
a(lp3230
I1312
aaa(lp3231
S'# challenge blocks'
p3232
a(lp3233
I512
aaa(lp3234
S'# threads'
p3235
a(lp3236
I1
aaa(lp3237
g48
a(lp3238
S'16384'
p3239
aaatRp3240
ag2
((lp3241
(lp3242
S'Get key'
p3243
a(lp3244
F6.0000000000000002e-06
aaa(lp3245
S'Create tag'
p3246
a(lp3247
F1.2438321000000001
aaa(lp3248
S'Create challenge'
p3249
a(lp3250
F4.4100000000000001e-05
aaa(lp3251
S'Create proof'
p3252
a(lp3253
F0.82269979999999998
aaa(lp3254
S'Verify file'
p3255
a(lp3256
F0.00098109999999999994
aaa(lp3257
S'HEAD'
p3258
a(lp3259
I0
aaa(lp3260
S'GET'
p3261
a(lp3262
I0
aaa(lp3263
S'PUT'
p3264
a(lp3265
I0
aaa(lp3266
S'COPY'
p3267
a(lp3268
I0
aaa(lp3269
S'LIST'
p3270
a(lp3271
I0
aaa(lp3272
S'POST'
p3273
a(lp3274
I0
aaa(lp3275
S'Metadata'
p3276
a(lp3277
S'SEPDP:Block size 4096:PRF key size 20:PRP key size 16:AE key size 16:years 1:minutes 1312:# challenge blocks 512:# threads 1:Filename ../../test-files/testfile_rand_32768KB'
p3278
aaa(lp3279
S'Timestamp'
p3280
a(lp3281
I1347323496
aaa(lp3282
S'Block size'
p3283
a(lp3284
I4096
aaa(lp3285
S'PRF key size'
p3286
a(lp3287
I20
aaa(lp3288
S'PRP key size'
p3289
a(lp3290
I16
aaa(lp3291
S'AE key size'
p3292
a(lp3293
I16
aaa(lp3294
S'years'
p3295
a(lp3296
I1
aaa(lp3297
S'minutes'
p3298
a(lp3299
I1312
aaa(lp3300
S'# challenge blocks'
p3301
a(lp3302
I512
aaa(lp3303
S'# threads'
p3304
a(lp3305
I1
aaa(lp3306
g48
a(lp3307
S'32768'
p3308
aaatRp3309
ag2
((lp3310
(lp3311
S'Get key'
p3312
a(lp3313
F1.19e-05
aaa(lp3314
S'Create tag'
p3315
a(lp3316
F1.2310859999999999
aaa(lp3317
S'Create challenge'
p3318
a(lp3319
F4.6e-05
aaa(lp3320
S'Create proof'
p3321
a(lp3322
F0.83722399999999997
aaa(lp3323
S'Verify file'
p3324
a(lp3325
F0.00088809999999999996
aaa(lp3326
S'HEAD'
p3327
a(lp3328
I0
aaa(lp3329
S'GET'
p3330
a(lp3331
I0
aaa(lp3332
S'PUT'
p3333
a(lp3334
I0
aaa(lp3335
S'COPY'
p3336
a(lp3337
I0
aaa(lp3338
S'LIST'
p3339
a(lp3340
I0
aaa(lp3341
S'POST'
p3342
a(lp3343
I0
aaa(lp3344
S'Metadata'
p3345
a(lp3346
S'SEPDP:Block size 4096:PRF key size 20:PRP key size 16:AE key size 16:years 1:minutes 1312:# challenge blocks 512:# threads 1:Filename ../../test-files/testfile_rand_65536KB'
p3347
aaa(lp3348
S'Timestamp'
p3349
a(lp3350
I1347324028
aaa(lp3351
S'Block size'
p3352
a(lp3353
I4096
aaa(lp3354
S'PRF key size'
p3355
a(lp3356
I20
aaa(lp3357
S'PRP key size'
p3358
a(lp3359
I16
aaa(lp3360
S'AE key size'
p3361
a(lp3362
I16
aaa(lp3363
S'years'
p3364
a(lp3365
I1
aaa(lp3366
S'minutes'
p3367
a(lp3368
I1312
aaa(lp3369
S'# challenge blocks'
p3370
a(lp3371
I512
aaa(lp3372
S'# threads'
p3373
a(lp3374
I1
aaa(lp3375
g48
a(lp3376
S'65536'
p3377
aaatRp3378
ag2
((lp3379
(lp3380
S'Get key'
p3381
a(lp3382
F6.0000000000000002e-06
aaa(lp3383
S'Create tag'
p3384
a(lp3385
F0.1214778
aaa(lp3386
S'Create challenge'
p3387
a(lp3388
F8.8200000000000003e-05
aaa(lp3389
S'Create proof'
p3390
a(lp3391
F0.085324999999999998
aaa(lp3392
S'Verify file'
p3393
a(lp3394
F0.00088599999999999996
aaa(lp3395
S'HEAD'
p3396
a(lp3397
I0
aaa(lp3398
S'GET'
p3399
a(lp3400
I0
aaa(lp3401
S'PUT'
p3402
a(lp3403
I0
aaa(lp3404
S'COPY'
p3405
a(lp3406
I0
aaa(lp3407
S'LIST'
p3408
a(lp3409
I0
aaa(lp3410
S'POST'
p3411
a(lp3412
I0
aaa(lp3413
S'Metadata'
p3414
a(lp3415
S'SEPDP:Block size 4096:PRF key size 20:PRP key size 16:AE key size 16:years 1:minutes 1312:# challenge blocks 512:# threads 1:Filename ../../test-files/testfile_rand_131072KB'
p3416
aaa(lp3417
S'Timestamp'
p3418
a(lp3419
I1347325112
aaa(lp3420
S'Block size'
p3421
a(lp3422
I4096
aaa(lp3423
S'PRF key size'
p3424
a(lp3425
I20
aaa(lp3426
S'PRP key size'
p3427
a(lp3428
I16
aaa(lp3429
S'AE key size'
p3430
a(lp3431
I16
aaa(lp3432
S'years'
p3433
a(lp3434
I1
aaa(lp3435
S'minutes'
p3436
a(lp3437
I1312
aaa(lp3438
S'# challenge blocks'
p3439
a(lp3440
I512
aaa(lp3441
S'# threads'
p3442
a(lp3443
I1
aaa(lp3444
g48
a(lp3445
S'131072'
p3446
aaatRp3447
ag2
((lp3448
(lp3449
S'Get key'
p3450
a(lp3451
F6.9e-06
aaa(lp3452
S'Create tag'
p3453
a(lp3454
F0.121139
aaa(lp3455
S'Create challenge'
p3456
a(lp3457
F3.6000000000000001e-05
aaa(lp3458
S'Create proof'
p3459
a(lp3460
F0.086976999999999999
aaa(lp3461
S'Verify file'
p3462
a(lp3463
F0.00089099999999999997
aaa(lp3464
S'HEAD'
p3465
a(lp3466
I0
aaa(lp3467
S'GET'
p3468
a(lp3469
I0
aaa(lp3470
S'PUT'
p3471
a(lp3472
I0
aaa(lp3473
S'COPY'
p3474
a(lp3475
I0
aaa(lp3476
S'LIST'
p3477
a(lp3478
I0
aaa(lp3479
S'POST'
p3480
a(lp3481
I0
aaa(lp3482
S'Metadata'
p3483
a(lp3484
S'SEPDP:Block size 4096:PRF key size 20:PRP key size 16:AE key size 16:years 1:minutes 1312:# challenge blocks 512:# threads 1:Filename ../../test-files/testfile_rand_262144KB'
p3485
aaa(lp3486
S'Timestamp'
p3487
a(lp3488
I1347327283
aaa(lp3489
S'Block size'
p3490
a(lp3491
I4096
aaa(lp3492
S'PRF key size'
p3493
a(lp3494
I20
aaa(lp3495
S'PRP key size'
p3496
a(lp3497
I16
aaa(lp3498
S'AE key size'
p3499
a(lp3500
I16
aaa(lp3501
S'years'
p3502
a(lp3503
I1
aaa(lp3504
S'minutes'
p3505
a(lp3506
I1312
aaa(lp3507
S'# challenge blocks'
p3508
a(lp3509
I512
aaa(lp3510
S'# threads'
p3511
a(lp3512
I1
aaa(lp3513
g48
a(lp3514
S'262144'
p3515
aaatRp3516
ag2
((lp3517
(lp3518
S'Get key'
p3519
a(lp3520
F6.1999999999999999e-06
aaa(lp3521
S'Create tag'
p3522
a(lp3523
F0.278362
aaa(lp3524
S'Create challenge'
p3525
a(lp3526
F4.1999999999999998e-05
aaa(lp3527
S'Create proof'
p3528
a(lp3529
F0.24598600000000001
aaa(lp3530
S'Verify file'
p3531
a(lp3532
F0.0070260000000000001
aaa(lp3533
S'HEAD'
p3534
a(lp3535
I0
aaa(lp3536
S'GET'
p3537
a(lp3538
I0
aaa(lp3539
S'PUT'
p3540
a(lp3541
I0
aaa(lp3542
S'COPY'
p3543
a(lp3544
I0
aaa(lp3545
S'LIST'
p3546
a(lp3547
I0
aaa(lp3548
S'POST'
p3549
a(lp3550
I0
aaa(lp3551
S'Metadata'
p3552
a(lp3553
S'SEPDP:Block size 4096:PRF key size 20:PRP key size 16:AE key size 16:years 1:minutes 1312:# challenge blocks 512:# threads 1:Filename ../../test-files/testfile_rand_524288KB'
p3554
aaa(lp3555
S'Timestamp'
p3556
a(lp3557
I1347332908
aaa(lp3558
S'Block size'
p3559
a(lp3560
I4096
aaa(lp3561
S'PRF key size'
p3562
a(lp3563
I20
aaa(lp3564
S'PRP key size'
p3565
a(lp3566
I16
aaa(lp3567
S'AE key size'
p3568
a(lp3569
I16
aaa(lp3570
S'years'
p3571
a(lp3572
I1
aaa(lp3573
S'minutes'
p3574
a(lp3575
I1312
aaa(lp3576
S'# challenge blocks'
p3577
a(lp3578
I512
aaa(lp3579
S'# threads'
p3580
a(lp3581
I1
aaa(lp3582
g48
a(lp3583
S'524288'
p3584
aaatRp3585
ag2
((lp3586
(lp3587
S'Get key'
p3588
a(lp3589
F0.0525382
aaa(lp3590
S'Create tag'
p3591
a(lp3592
F0.068872199999999995
aaa(lp3593
S'Create challenge'
p3594
a(lp3595
F0.017866099999999999
aaa(lp3596
S'Sanitize challenge'
p3597
a(lp3598
F1.1e-05
aaa(lp3599
S'Create proof'
p3600
a(lp3601
F2.175662
aaa(lp3602
S'Verify file'
p3603
a(lp3604
F0.0197968
aaa(lp3605
S'HEAD'
p3606
a(lp3607
I0
aaa(lp3608
S'GET'
p3609
a(lp3610
I0
aaa(lp3611
S'PUT'
p3612
a(lp3613
I0
aaa(lp3614
S'COPY'
p3615
a(lp3616
I0
aaa(lp3617
S'LIST'
p3618
a(lp3619
I0
aaa(lp3620
S'POST'
p3621
a(lp3622
I0
aaa(lp3623
S'Metadata'
p3624
a(lp3625
S'PDP:Block size 16384:PRF key size 20:PRP key size 16:RSA key size 1024:use E-PDP 1:use safe primes 1:# challenges 460:# threads 1:Filename ../../test-files/testfile_rand_2KB'
p3626
aaa(lp3627
S'Timestamp'
p3628
a(lp3629
I1347322958
aaa(lp3630
S'Block size'
p3631
a(lp3632
I16384
aaa(lp3633
S'PRF key size'
p3634
a(lp3635
I20
aaa(lp3636
S'PRP key size'
p3637
a(lp3638
I16
aaa(lp3639
S'RSA key size'
p3640
a(lp3641
I1024
aaa(lp3642
S'use E-PDP'
p3643
a(lp3644
I1
aaa(lp3645
S'use safe primes'
p3646
a(lp3647
I1
aaa(lp3648
S'# challenges'
p3649
a(lp3650
I460
aaa(lp3651
S'# threads'
p3652
a(lp3653
I1
aaa(lp3654
g48
a(lp3655
S'2'
aaatRp3656
ag2
((lp3657
(lp3658
S'Get key'
p3659
a(lp3660
F0.025433999999999998
aaa(lp3661
S'Create tag'
p3662
a(lp3663
F0.063756900000000005
aaa(lp3664
S'Create challenge'
p3665
a(lp3666
F0.018790999999999999
aaa(lp3667
S'Sanitize challenge'
p3668
a(lp3669
F8.8000000000000004e-06
aaa(lp3670
S'Create proof'
p3671
a(lp3672
F1.8801401
aaa(lp3673
S'Verify file'
p3674
a(lp3675
F0.019275899999999999
aaa(lp3676
S'HEAD'
p3677
a(lp3678
I0
aaa(lp3679
S'GET'
p3680
a(lp3681
I0
aaa(lp3682
S'PUT'
p3683
a(lp3684
I0
aaa(lp3685
S'COPY'
p3686
a(lp3687
I0
aaa(lp3688
S'LIST'
p3689
a(lp3690
I0
aaa(lp3691
S'POST'
p3692
a(lp3693
I0
aaa(lp3694
S'Metadata'
p3695
a(lp3696
S'PDP:Block size 16384:PRF key size 20:PRP key size 16:RSA key size 1024:use E-PDP 1:use safe primes 1:# challenges 460:# threads 1:Filename ../../test-files/testfile_rand_4KB'
p3697
aaa(lp3698
S'Timestamp'
p3699
a(lp3700
I1347322960
aaa(lp3701
S'Block size'
p3702
a(lp3703
I16384
aaa(lp3704
S'PRF key size'
p3705
a(lp3706
I20
aaa(lp3707
S'PRP key size'
p3708
a(lp3709
I16
aaa(lp3710
S'RSA key size'
p3711
a(lp3712
I1024
aaa(lp3713
S'use E-PDP'
p3714
a(lp3715
I1
aaa(lp3716
S'use safe primes'
p3717
a(lp3718
I1
aaa(lp3719
S'# challenges'
p3720
a(lp3721
I460
aaa(lp3722
S'# threads'
p3723
a(lp3724
I1
aaa(lp3725
g48
a(lp3726
S'4'
aaatRp3727
ag2
((lp3728
(lp3729
S'Get key'
p3730
a(lp3731
F0.028782800000000001
aaa(lp3732
S'Create tag'
p3733
a(lp3734
F0.062359999999999999
aaa(lp3735
S'Create challenge'
p3736
a(lp3737
F0.018061199999999999
aaa(lp3738
S'Sanitize challenge'
p3739
a(lp3740
F1.29e-05
aaa(lp3741
S'Create proof'
p3742
a(lp3743
F1.963382
aaa(lp3744
S'Verify file'
p3745
a(lp3746
F0.019406099999999999
aaa(lp3747
S'HEAD'
p3748
a(lp3749
I0
aaa(lp3750
S'GET'
p3751
a(lp3752
I0
aaa(lp3753
S'PUT'
p3754
a(lp3755
I0
aaa(lp3756
S'COPY'
p3757
a(lp3758
I0
aaa(lp3759
S'LIST'
p3760
a(lp3761
I0
aaa(lp3762
S'POST'
p3763
a(lp3764
I0
aaa(lp3765
S'Metadata'
p3766
a(lp3767
S'PDP:Block size 16384:PRF key size 20:PRP key size 16:RSA key size 1024:use E-PDP 1:use safe primes 1:# challenges 460:# threads 1:Filename ../../test-files/testfile_rand_8KB'
p3768
aaa(lp3769
S'Timestamp'
p3770
a(lp3771
I1347322963
aaa(lp3772
S'Block size'
p3773
a(lp3774
I16384
aaa(lp3775
S'PRF key size'
p3776
a(lp3777
I20
aaa(lp3778
S'PRP key size'
p3779
a(lp3780
I16
aaa(lp3781
S'RSA key size'
p3782
a(lp3783
I1024
aaa(lp3784
S'use E-PDP'
p3785
a(lp3786
I1
aaa(lp3787
S'use safe primes'
p3788
a(lp3789
I1
aaa(lp3790
S'# challenges'
p3791
a(lp3792
I460
aaa(lp3793
S'# threads'
p3794
a(lp3795
I1
aaa(lp3796
g48
a(lp3797
S'8'
aaatRp3798
ag2
((lp3799
(lp3800
S'Get key'
p3801
a(lp3802
F0.026176000000000001
aaa(lp3803
S'Create tag'
p3804
a(lp3805
F0.063397200000000001
aaa(lp3806
S'Create challenge'
p3807
a(lp3808
F0.018160099999999998
aaa(lp3809
S'Sanitize challenge'
p3810
a(lp3811
F6.9e-06
aaa(lp3812
S'Create proof'
p3813
a(lp3814
F2.0856048999999999
aaa(lp3815
S'Verify file'
p3816
a(lp3817
F0.019383000000000001
aaa(lp3818
S'HEAD'
p3819
a(lp3820
I0
aaa(lp3821
S'GET'
p3822
a(lp3823
I0
aaa(lp3824
S'PUT'
p3825
a(lp3826
I0
aaa(lp3827
S'COPY'
p3828
a(lp3829
I0
aaa(lp3830
S'LIST'
p3831
a(lp3832
I0
aaa(lp3833
S'POST'
p3834
a(lp3835
I0
aaa(lp3836
S'Metadata'
p3837
a(lp3838
S'PDP:Block size 16384:PRF key size 20:PRP key size 16:RSA key size 1024:use E-PDP 1:use safe primes 1:# challenges 460:# threads 1:Filename ../../test-files/testfile_rand_16KB'
p3839
aaa(lp3840
S'Timestamp'
p3841
a(lp3842
I1347322965
aaa(lp3843
S'Block size'
p3844
a(lp3845
I16384
aaa(lp3846
S'PRF key size'
p3847
a(lp3848
I20
aaa(lp3849
S'PRP key size'
p3850
a(lp3851
I16
aaa(lp3852
S'RSA key size'
p3853
a(lp3854
I1024
aaa(lp3855
S'use E-PDP'
p3856
a(lp3857
I1
aaa(lp3858
S'use safe primes'
p3859
a(lp3860
I1
aaa(lp3861
S'# challenges'
p3862
a(lp3863
I460
aaa(lp3864
S'# threads'
p3865
a(lp3866
I1
aaa(lp3867
g48
a(lp3868
S'16'
p3869
aaatRp3870
ag2
((lp3871
(lp3872
S'Get key'
p3873
a(lp3874
F0.026101099999999999
aaa(lp3875
S'Create tag'
p3876
a(lp3877
F0.1046271
aaa(lp3878
S'Create challenge'
p3879
a(lp3880
F0.018060900000000001
aaa(lp3881
S'Sanitize challenge'
p3882
a(lp3883
F6.9e-06
aaa(lp3884
S'Create proof'
p3885
a(lp3886
F2.0749320999999998
aaa(lp3887
S'Verify file'
p3888
a(lp3889
F0.019685000000000001
aaa(lp3890
S'HEAD'
p3891
a(lp3892
I0
aaa(lp3893
S'GET'
p3894
a(lp3895
I0
aaa(lp3896
S'PUT'
p3897
a(lp3898
I0
aaa(lp3899
S'COPY'
p3900
a(lp3901
I0
aaa(lp3902
S'LIST'
p3903
a(lp3904
I0
aaa(lp3905
S'POST'
p3906
a(lp3907
I0
aaa(lp3908
S'Metadata'
p3909
a(lp3910
S'PDP:Block size 16384:PRF key size 20:PRP key size 16:RSA key size 1024:use E-PDP 1:use safe primes 1:# challenges 460:# threads 1:Filename ../../test-files/testfile_rand_32KB'
p3911
aaa(lp3912
S'Timestamp'
p3913
a(lp3914
I1347322968
aaa(lp3915
S'Block size'
p3916
a(lp3917
I16384
aaa(lp3918
S'PRF key size'
p3919
a(lp3920
I20
aaa(lp3921
S'PRP key size'
p3922
a(lp3923
I16
aaa(lp3924
S'RSA key size'
p3925
a(lp3926
I1024
aaa(lp3927
S'use E-PDP'
p3928
a(lp3929
I1
aaa(lp3930
S'use safe primes'
p3931
a(lp3932
I1
aaa(lp3933
S'# challenges'
p3934
a(lp3935
I460
aaa(lp3936
S'# threads'
p3937
a(lp3938
I1
aaa(lp3939
g48
a(lp3940
S'32'
p3941
aaatRp3942
ag2
((lp3943
(lp3944
S'Get key'
p3945
a(lp3946
F0.026313099999999999
aaa(lp3947
S'Create tag'
p3948
a(lp3949
F0.16565489999999999
aaa(lp3950
S'Create challenge'
p3951
a(lp3952
F0.018703000000000001
aaa(lp3953
S'Sanitize challenge'
p3954
a(lp3955
F6.9e-06
aaa(lp3956
S'Create proof'
p3957
a(lp3958
F2.1289158000000001
aaa(lp3959
S'Verify file'
p3960
a(lp3961
F0.019503800000000002
aaa(lp3962
S'HEAD'
p3963
a(lp3964
I0
aaa(lp3965
S'GET'
p3966
a(lp3967
I0
aaa(lp3968
S'PUT'
p3969
a(lp3970
I0
aaa(lp3971
S'COPY'
p3972
a(lp3973
I0
aaa(lp3974
S'LIST'
p3975
a(lp3976
I0
aaa(lp3977
S'POST'
p3978
a(lp3979
I0
aaa(lp3980
S'Metadata'
p3981
a(lp3982
S'PDP:Block size 16384:PRF key size 20:PRP key size 16:RSA key size 1024:use E-PDP 1:use safe primes 1:# challenges 460:# threads 1:Filename ../../test-files/testfile_rand_64KB'
p3983
aaa(lp3984
S'Timestamp'
p3985
a(lp3986
I1347322971
aaa(lp3987
S'Block size'
p3988
a(lp3989
I16384
aaa(lp3990
S'PRF key size'
p3991
a(lp3992
I20
aaa(lp3993
S'PRP key size'
p3994
a(lp3995
I16
aaa(lp3996
S'RSA key size'
p3997
a(lp3998
I1024
aaa(lp3999
S'use E-PDP'
p4000
a(lp4001
I1
aaa(lp4002
S'use safe primes'
p4003
a(lp4004
I1
aaa(lp4005
S'# challenges'
p4006
a(lp4007
I460
aaa(lp4008
S'# threads'
p4009
a(lp4010
I1
aaa(lp4011
g48
a(lp4012
S'64'
p4013
aaatRp4014
ag2
((lp4015
(lp4016
S'Get key'
p4017
a(lp4018
F0.026312100000000001
aaa(lp4019
S'Create tag'
p4020
a(lp4021
F0.31811210000000001
aaa(lp4022
S'Create challenge'
p4023
a(lp4024
F0.018151
aaa(lp4025
S'Sanitize challenge'
p4026
a(lp4027
F7.9000000000000006e-06
aaa(lp4028
S'Create proof'
p4029
a(lp4030
F2.1063721000000002
aaa(lp4031
S'Verify file'
p4032
a(lp4033
F0.020920999999999999
aaa(lp4034
S'HEAD'
p4035
a(lp4036
I0
aaa(lp4037
S'GET'
p4038
a(lp4039
I0
aaa(lp4040
S'PUT'
p4041
a(lp4042
I0
aaa(lp4043
S'COPY'
p4044
a(lp4045
I0
aaa(lp4046
S'LIST'
p4047
a(lp4048
I0
aaa(lp4049
S'POST'
p4050
a(lp4051
I0
aaa(lp4052
S'Metadata'
p4053
a(lp4054
S'PDP:Block size 16384:PRF key size 20:PRP key size 16:RSA key size 1024:use E-PDP 1:use safe primes 1:# challenges 460:# threads 1:Filename ../../test-files/testfile_rand_128KB'
p4055
aaa(lp4056
S'Timestamp'
p4057
a(lp4058
I1347322974
aaa(lp4059
S'Block size'
p4060
a(lp4061
I16384
aaa(lp4062
S'PRF key size'
p4063
a(lp4064
I20
aaa(lp4065
S'PRP key size'
p4066
a(lp4067
I16
aaa(lp4068
S'RSA key size'
p4069
a(lp4070
I1024
aaa(lp4071
S'use E-PDP'
p4072
a(lp4073
I1
aaa(lp4074
S'use safe primes'
p4075
a(lp4076
I1
aaa(lp4077
S'# challenges'
p4078
a(lp4079
I460
aaa(lp4080
S'# threads'
p4081
a(lp4082
I1
aaa(lp4083
g48
a(lp4084
S'128'
p4085
aaatRp4086
ag2
((lp4087
(lp4088
S'Get key'
p4089
a(lp4090
F0.026030999999999999
aaa(lp4091
S'Create tag'
p4092
a(lp4093
F0.60337620000000003
aaa(lp4094
S'Create challenge'
p4095
a(lp4096
F0.017940000000000001
aaa(lp4097
S'Sanitize challenge'
p4098
a(lp4099
F7.1999999999999997e-06
aaa(lp4100
S'Create proof'
p4101
a(lp4102
F2.4530859
aaa(lp4103
S'Verify file'
p4104
a(lp4105
F0.021246899999999999
aaa(lp4106
S'HEAD'
p4107
a(lp4108
I0
aaa(lp4109
S'GET'
p4110
a(lp4111
I0
aaa(lp4112
S'PUT'
p4113
a(lp4114
I0
aaa(lp4115
S'COPY'
p4116
a(lp4117
I0
aaa(lp4118
S'LIST'
p4119
a(lp4120
I0
aaa(lp4121
S'POST'
p4122
a(lp4123
I0
aaa(lp4124
S'Metadata'
p4125
a(lp4126
S'PDP:Block size 16384:PRF key size 20:PRP key size 16:RSA key size 1024:use E-PDP 1:use safe primes 1:# challenges 460:# threads 1:Filename ../../test-files/testfile_rand_256KB'
p4127
aaa(lp4128
S'Timestamp'
p4129
a(lp4130
I1347322977
aaa(lp4131
S'Block size'
p4132
a(lp4133
I16384
aaa(lp4134
S'PRF key size'
p4135
a(lp4136
I20
aaa(lp4137
S'PRP key size'
p4138
a(lp4139
I16
aaa(lp4140
S'RSA key size'
p4141
a(lp4142
I1024
aaa(lp4143
S'use E-PDP'
p4144
a(lp4145
I1
aaa(lp4146
S'use safe primes'
p4147
a(lp4148
I1
aaa(lp4149
S'# challenges'
p4150
a(lp4151
I460
aaa(lp4152
S'# threads'
p4153
a(lp4154
I1
aaa(lp4155
g48
a(lp4156
S'256'
p4157
aaatRp4158
ag2
((lp4159
(lp4160
S'Get key'
p4161
a(lp4162
F0.026277999999999999
aaa(lp4163
S'Create tag'
p4164
a(lp4165
F1.1781349000000001
aaa(lp4166
S'Create challenge'
p4167
a(lp4168
F0.019422100000000001
aaa(lp4169
S'Sanitize challenge'
p4170
a(lp4171
F1.0000000000000001e-05
aaa(lp4172
S'Create proof'
p4173
a(lp4174
F2.1678660000000001
aaa(lp4175
S'Verify file'
p4176
a(lp4177
F0.0232038
aaa(lp4178
S'HEAD'
p4179
a(lp4180
I0
aaa(lp4181
S'GET'
p4182
a(lp4183
I0
aaa(lp4184
S'PUT'
p4185
a(lp4186
I0
aaa(lp4187
S'COPY'
p4188
a(lp4189
I0
aaa(lp4190
S'LIST'
p4191
a(lp4192
I0
aaa(lp4193
S'POST'
p4194
a(lp4195
I0
aaa(lp4196
S'Metadata'
p4197
a(lp4198
S'PDP:Block size 16384:PRF key size 20:PRP key size 16:RSA key size 1024:use E-PDP 1:use safe primes 1:# challenges 460:# threads 1:Filename ../../test-files/testfile_rand_512KB'
p4199
aaa(lp4200
S'Timestamp'
p4201
a(lp4202
I1347322982
aaa(lp4203
S'Block size'
p4204
a(lp4205
I16384
aaa(lp4206
S'PRF key size'
p4207
a(lp4208
I20
aaa(lp4209
S'PRP key size'
p4210
a(lp4211
I16
aaa(lp4212
S'RSA key size'
p4213
a(lp4214
I1024
aaa(lp4215
S'use E-PDP'
p4216
a(lp4217
I1
aaa(lp4218
S'use safe primes'
p4219
a(lp4220
I1
aaa(lp4221
S'# challenges'
p4222
a(lp4223
I460
aaa(lp4224
S'# threads'
p4225
a(lp4226
I1
aaa(lp4227
g48
a(lp4228
S'512'
p4229
aaatRp4230
ag2
((lp4231
(lp4232
S'Get key'
p4233
a(lp4234
F0.027539999999999999
aaa(lp4235
S'Create tag'
p4236
a(lp4237
F2.495012
aaa(lp4238
S'Create challenge'
p4239
a(lp4240
F0.019244000000000001
aaa(lp4241
S'Sanitize challenge'
p4242
a(lp4243
F1.1e-05
aaa(lp4244
S'Create proof'
p4245
a(lp4246
F2.1589200000000002
aaa(lp4247
S'Verify file'
p4248
a(lp4249
F0.026016999999999998
aaa(lp4250
S'HEAD'
p4251
a(lp4252
I0
aaa(lp4253
S'GET'
p4254
a(lp4255
I0
aaa(lp4256
S'PUT'
p4257
a(lp4258
I0
aaa(lp4259
S'COPY'
p4260
a(lp4261
I0
aaa(lp4262
S'LIST'
p4263
a(lp4264
I0
aaa(lp4265
S'POST'
p4266
a(lp4267
I0
aaa(lp4268
S'Metadata'
p4269
a(lp4270
S'PDP:Block size 16384:PRF key size 20:PRP key size 16:RSA key size 1024:use E-PDP 1:use safe primes 1:# challenges 460:# threads 1:Filename ../../test-files/testfile_rand_1024KB'
p4271
aaa(lp4272
S'Timestamp'
p4273
a(lp4274
I1347322987
aaa(lp4275
S'Block size'
p4276
a(lp4277
I16384
aaa(lp4278
S'PRF key size'
p4279
a(lp4280
I20
aaa(lp4281
S'PRP key size'
p4282
a(lp4283
I16
aaa(lp4284
S'RSA key size'
p4285
a(lp4286
I1024
aaa(lp4287
S'use E-PDP'
p4288
a(lp4289
I1
aaa(lp4290
S'use safe primes'
p4291
a(lp4292
I1
aaa(lp4293
S'# challenges'
p4294
a(lp4295
I460
aaa(lp4296
S'# threads'
p4297
a(lp4298
I1
aaa(lp4299
g48
a(lp4300
S'1024'
p4301
aaatRp4302
ag2
((lp4303
(lp4304
S'Get key'
p4305
a(lp4306
F0.026271099999999999
aaa(lp4307
S'Create tag'
p4308
a(lp4309
F30.793935999999999
aaa(lp4310
S'Create challenge'
p4311
a(lp4312
F0.23459079999999999
aaa(lp4313
S'Sanitize challenge'
p4314
a(lp4315
F1.22e-05
aaa(lp4316
S'Create proof'
p4317
a(lp4318
F13.753869999999999
aaa(lp4319
S'Verify file'
p4320
a(lp4321
F0.031936199999999998
aaa(lp4322
S'HEAD'
p4323
a(lp4324
I0
aaa(lp4325
S'GET'
p4326
a(lp4327
I0
aaa(lp4328
S'PUT'
p4329
a(lp4330
I0
aaa(lp4331
S'COPY'
p4332
a(lp4333
I0
aaa(lp4334
S'LIST'
p4335
a(lp4336
I0
aaa(lp4337
S'POST'
p4338
a(lp4339
I0
aaa(lp4340
S'Metadata'
p4341
a(lp4342
S'PDP:Block size 16384:PRF key size 20:PRP key size 16:RSA key size 1024:use E-PDP 1:use safe primes 1:# challenges 460:# threads 1:Filename ../../test-files/testfile_rand_2048KB'
p4343
aaa(lp4344
S'Timestamp'
p4345
a(lp4346
I1347323033
aaa(lp4347
S'Block size'
p4348
a(lp4349
I16384
aaa(lp4350
S'PRF key size'
p4351
a(lp4352
I20
aaa(lp4353
S'PRP key size'
p4354
a(lp4355
I16
aaa(lp4356
S'RSA key size'
p4357
a(lp4358
I1024
aaa(lp4359
S'use E-PDP'
p4360
a(lp4361
I1
aaa(lp4362
S'use safe primes'
p4363
a(lp4364
I1
aaa(lp4365
S'# challenges'
p4366
a(lp4367
I460
aaa(lp4368
S'# threads'
p4369
a(lp4370
I1
aaa(lp4371
g48
a(lp4372
S'2048'
p4373
aaatRp4374
ag2
((lp4375
(lp4376
S'Get key'
p4377
a(lp4378
F0.025645000000000001
aaa(lp4379
S'Create tag'
p4380
a(lp4381
F38.118688800000001
aaa(lp4382
S'Create challenge'
p4383
a(lp4384
F0.018421900000000001
aaa(lp4385
S'Sanitize challenge'
p4386
a(lp4387
F1.22e-05
aaa(lp4388
S'Create proof'
p4389
a(lp4390
F2.7755480000000001
aaa(lp4391
S'Verify file'
p4392
a(lp4393
F0.043317099999999997
aaa(lp4394
S'HEAD'
p4395
a(lp4396
I0
aaa(lp4397
S'GET'
p4398
a(lp4399
I0
aaa(lp4400
S'PUT'
p4401
a(lp4402
I0
aaa(lp4403
S'COPY'
p4404
a(lp4405
I0
aaa(lp4406
S'LIST'
p4407
a(lp4408
I0
aaa(lp4409
S'POST'
p4410
a(lp4411
I0
aaa(lp4412
S'Metadata'
p4413
a(lp4414
S'PDP:Block size 16384:PRF key size 20:PRP key size 16:RSA key size 1024:use E-PDP 1:use safe primes 1:# challenges 460:# threads 1:Filename ../../test-files/testfile_rand_4096KB'
p4415
aaa(lp4416
S'Timestamp'
p4417
a(lp4418
I1347323076
aaa(lp4419
S'Block size'
p4420
a(lp4421
I16384
aaa(lp4422
S'PRF key size'
p4423
a(lp4424
I20
aaa(lp4425
S'PRP key size'
p4426
a(lp4427
I16
aaa(lp4428
S'RSA key size'
p4429
a(lp4430
I1024
aaa(lp4431
S'use E-PDP'
p4432
a(lp4433
I1
aaa(lp4434
S'use safe primes'
p4435
a(lp4436
I1
aaa(lp4437
S'# challenges'
p4438
a(lp4439
I460
aaa(lp4440
S'# threads'
p4441
a(lp4442
I1
aaa(lp4443
g48
a(lp4444
S'4096'
p4445
aaatRp4446
ag2
((lp4447
(lp4448
S'Get key'
p4449
a(lp4450
F0.23354320000000001
aaa(lp4451
S'Create tag'
p4452
a(lp4453
F91.503460899999993
aaa(lp4454
S'Create challenge'
p4455
a(lp4456
F0.23436190000000001
aaa(lp4457
S'Sanitize challenge'
p4458
a(lp4459
F1.22e-05
aaa(lp4460
S'Create proof'
p4461
a(lp4462
F14.6310909
aaa(lp4463
S'Verify file'
p4464
a(lp4465
F0.065967100000000001
aaa(lp4466
S'HEAD'
p4467
a(lp4468
I0
aaa(lp4469
S'GET'
p4470
a(lp4471
I0
aaa(lp4472
S'PUT'
p4473
a(lp4474
I0
aaa(lp4475
S'COPY'
p4476
a(lp4477
I0
aaa(lp4478
S'LIST'
p4479
a(lp4480
I0
aaa(lp4481
S'POST'
p4482
a(lp4483
I0
aaa(lp4484
S'Metadata'
p4485
a(lp4486
S'PDP:Block size 16384:PRF key size 20:PRP key size 16:RSA key size 1024:use E-PDP 1:use safe primes 1:# challenges 460:# threads 1:Filename ../../test-files/testfile_rand_8192KB'
p4487
aaa(lp4488
S'Timestamp'
p4489
a(lp4490
I1347323207
aaa(lp4491
S'Block size'
p4492
a(lp4493
I16384
aaa(lp4494
S'PRF key size'
p4495
a(lp4496
I20
aaa(lp4497
S'PRP key size'
p4498
a(lp4499
I16
aaa(lp4500
S'RSA key size'
p4501
a(lp4502
I1024
aaa(lp4503
S'use E-PDP'
p4504
a(lp4505
I1
aaa(lp4506
S'use safe primes'
p4507
a(lp4508
I1
aaa(lp4509
S'# challenges'
p4510
a(lp4511
I460
aaa(lp4512
S'# threads'
p4513
a(lp4514
I1
aaa(lp4515
g48
a(lp4516
S'8192'
p4517
aaatRp4518
ag2
((lp4519
(lp4520
S'Get key'
p4521
a(lp4522
F0.24301510000000001
aaa(lp4523
S'Create tag'
p4524
a(lp4525
F176.73106100000001
aaa(lp4526
S'Create challenge'
p4527
a(lp4528
F0.017808899999999999
aaa(lp4529
S'Sanitize challenge'
p4530
a(lp4531
F6.9e-06
aaa(lp4532
S'Create proof'
p4533
a(lp4534
F37.558743999999997
aaa(lp4535
S'Verify file'
p4536
a(lp4537
F0.7030149
aaa(lp4538
S'HEAD'
p4539
a(lp4540
I0
aaa(lp4541
S'GET'
p4542
a(lp4543
I0
aaa(lp4544
S'PUT'
p4545
a(lp4546
I0
aaa(lp4547
S'COPY'
p4548
a(lp4549
I0
aaa(lp4550
S'LIST'
p4551
a(lp4552
I0
aaa(lp4553
S'POST'
p4554
a(lp4555
I0
aaa(lp4556
S'Metadata'
p4557
a(lp4558
S'PDP:Block size 16384:PRF key size 20:PRP key size 16:RSA key size 1024:use E-PDP 1:use safe primes 1:# challenges 460:# threads 1:Filename ../../test-files/testfile_rand_16384KB'
p4559
aaa(lp4560
S'Timestamp'
p4561
a(lp4562
I1347323457
aaa(lp4563
S'Block size'
p4564
a(lp4565
I16384
aaa(lp4566
S'PRF key size'
p4567
a(lp4568
I20
aaa(lp4569
S'PRP key size'
p4570
a(lp4571
I16
aaa(lp4572
S'RSA key size'
p4573
a(lp4574
I1024
aaa(lp4575
S'use E-PDP'
p4576
a(lp4577
I1
aaa(lp4578
S'use safe primes'
p4579
a(lp4580
I1
aaa(lp4581
S'# challenges'
p4582
a(lp4583
I460
aaa(lp4584
S'# threads'
p4585
a(lp4586
I1
aaa(lp4587
g48
a(lp4588
S'16384'
p4589
aaatRp4590
ag2
((lp4591
(lp4592
S'Get key'
p4593
a(lp4594
F0.23186300000000001
aaa(lp4595
S'Create tag'
p4596
a(lp4597
F405.59472490000002
aaa(lp4598
S'Create challenge'
p4599
a(lp4600
F0.222831
aaa(lp4601
S'Sanitize challenge'
p4602
a(lp4603
F9.0999999999999993e-06
aaa(lp4604
S'Create proof'
p4605
a(lp4606
F41.006399899999998
aaa(lp4607
S'Verify file'
p4608
a(lp4609
F0.59761399999999998
aaa(lp4610
S'HEAD'
p4611
a(lp4612
I0
aaa(lp4613
S'GET'
p4614
a(lp4615
I0
aaa(lp4616
S'PUT'
p4617
a(lp4618
I0
aaa(lp4619
S'COPY'
p4620
a(lp4621
I0
aaa(lp4622
S'LIST'
p4623
a(lp4624
I0
aaa(lp4625
S'POST'
p4626
a(lp4627
I0
aaa(lp4628
S'Metadata'
p4629
a(lp4630
S'PDP:Block size 16384:PRF key size 20:PRP key size 16:RSA key size 1024:use E-PDP 1:use safe primes 1:# challenges 460:# threads 1:Filename ../../test-files/testfile_rand_32768KB'
p4631
aaa(lp4632
S'Timestamp'
p4633
a(lp4634
I1347323944
aaa(lp4635
S'Block size'
p4636
a(lp4637
I16384
aaa(lp4638
S'PRF key size'
p4639
a(lp4640
I20
aaa(lp4641
S'PRP key size'
p4642
a(lp4643
I16
aaa(lp4644
S'RSA key size'
p4645
a(lp4646
I1024
aaa(lp4647
S'use E-PDP'
p4648
a(lp4649
I1
aaa(lp4650
S'use safe primes'
p4651
a(lp4652
I1
aaa(lp4653
S'# challenges'
p4654
a(lp4655
I460
aaa(lp4656
S'# threads'
p4657
a(lp4658
I1
aaa(lp4659
g48
a(lp4660
S'32768'
p4661
aaatRp4662
ag2
((lp4663
(lp4664
S'Get key'
p4665
a(lp4666
F0.35242200000000001
aaa(lp4667
S'Create tag'
p4668
a(lp4669
F812.64984389999995
aaa(lp4670
S'Create challenge'
p4671
a(lp4672
F0.019056099999999999
aaa(lp4673
S'Sanitize challenge'
p4674
a(lp4675
F8.8000000000000004e-06
aaa(lp4676
S'Create proof'
p4677
a(lp4678
F95.8208001
aaa(lp4679
S'Verify file'
p4680
a(lp4681
F0.066684999999999994
aaa(lp4682
S'HEAD'
p4683
a(lp4684
I0
aaa(lp4685
S'GET'
p4686
a(lp4687
I0
aaa(lp4688
S'PUT'
p4689
a(lp4690
I0
aaa(lp4691
S'COPY'
p4692
a(lp4693
I0
aaa(lp4694
S'LIST'
p4695
a(lp4696
I0
aaa(lp4697
S'POST'
p4698
a(lp4699
I0
aaa(lp4700
S'Metadata'
p4701
a(lp4702
S'PDP:Block size 16384:PRF key size 20:PRP key size 16:RSA key size 1024:use E-PDP 1:use safe primes 1:# challenges 460:# threads 1:Filename ../../test-files/testfile_rand_65536KB'
p4703
aaa(lp4704
S'Timestamp'
p4705
a(lp4706
I1347324937
aaa(lp4707
S'Block size'
p4708
a(lp4709
I16384
aaa(lp4710
S'PRF key size'
p4711
a(lp4712
I20
aaa(lp4713
S'PRP key size'
p4714
a(lp4715
I16
aaa(lp4716
S'RSA key size'
p4717
a(lp4718
I1024
aaa(lp4719
S'use E-PDP'
p4720
a(lp4721
I1
aaa(lp4722
S'use safe primes'
p4723
a(lp4724
I1
aaa(lp4725
S'# challenges'
p4726
a(lp4727
I460
aaa(lp4728
S'# threads'
p4729
a(lp4730
I1
aaa(lp4731
g48
a(lp4732
S'65536'
p4733
aaatRp4734
ag2
((lp4735
(lp4736
S'Get key'
p4737
a(lp4738
F0.026731999999999999
aaa(lp4739
S'Create tag'
p4740
a(lp4741
F1623.2204939999999
aaa(lp4742
S'Create challenge'
p4743
a(lp4744
F0.12649199999999999
aaa(lp4745
S'Sanitize challenge'
p4746
a(lp4747
F8.8000000000000004e-06
aaa(lp4748
S'Create proof'
p4749
a(lp4750
F166.53906180000001
aaa(lp4751
S'Verify file'
p4752
a(lp4753
F0.064107899999999995
aaa(lp4754
S'HEAD'
p4755
a(lp4756
I0
aaa(lp4757
S'GET'
p4758
a(lp4759
I0
aaa(lp4760
S'PUT'
p4761
a(lp4762
I0
aaa(lp4763
S'COPY'
p4764
a(lp4765
I0
aaa(lp4766
S'LIST'
p4767
a(lp4768
I0
aaa(lp4769
S'POST'
p4770
a(lp4771
I0
aaa(lp4772
S'Metadata'
p4773
a(lp4774
S'PDP:Block size 16384:PRF key size 20:PRP key size 16:RSA key size 1024:use E-PDP 1:use safe primes 1:# challenges 460:# threads 1:Filename ../../test-files/testfile_rand_131072KB'
p4775
aaa(lp4776
S'Timestamp'
p4777
a(lp4778
I1347326902
aaa(lp4779
S'Block size'
p4780
a(lp4781
I16384
aaa(lp4782
S'PRF key size'
p4783
a(lp4784
I20
aaa(lp4785
S'PRP key size'
p4786
a(lp4787
I16
aaa(lp4788
S'RSA key size'
p4789
a(lp4790
I1024
aaa(lp4791
S'use E-PDP'
p4792
a(lp4793
I1
aaa(lp4794
S'use safe primes'
p4795
a(lp4796
I1
aaa(lp4797
S'# challenges'
p4798
a(lp4799
I460
aaa(lp4800
S'# threads'
p4801
a(lp4802
I1
aaa(lp4803
g48
a(lp4804
S'131072'
p4805
aaatRp4806
ag2
((lp4807
(lp4808
S'Get key'
p4809
a(lp4810
F0.034441899999999998
aaa(lp4811
S'Create tag'
p4812
a(lp4813
F4118.6497810000001
aaa(lp4814
S'Create challenge'
p4815
a(lp4816
F0.2226341
aaa(lp4817
S'Sanitize challenge'
p4818
a(lp4819
F1.19e-05
aaa(lp4820
S'Create proof'
p4821
a(lp4822
F509.11613920000002
aaa(lp4823
S'Verify file'
p4824
a(lp4825
F0.067356100000000002
aaa(lp4826
S'HEAD'
p4827
a(lp4828
I0
aaa(lp4829
S'GET'
p4830
a(lp4831
I0
aaa(lp4832
S'PUT'
p4833
a(lp4834
I0
aaa(lp4835
S'COPY'
p4836
a(lp4837
I0
aaa(lp4838
S'LIST'
p4839
a(lp4840
I0
aaa(lp4841
S'POST'
p4842
a(lp4843
I0
aaa(lp4844
S'Metadata'
p4845
a(lp4846
S'PDP:Block size 16384:PRF key size 20:PRP key size 16:RSA key size 1024:use E-PDP 1:use safe primes 1:# challenges 460:# threads 1:Filename ../../test-files/testfile_rand_262144KB'
p4847
aaa(lp4848
S'Timestamp'
p4849
a(lp4850
I1347331911
aaa(lp4851
S'Block size'
p4852
a(lp4853
I16384
aaa(lp4854
S'PRF key size'
p4855
a(lp4856
I20
aaa(lp4857
S'PRP key size'
p4858
a(lp4859
I16
aaa(lp4860
S'RSA key size'
p4861
a(lp4862
I1024
aaa(lp4863
S'use E-PDP'
p4864
a(lp4865
I1
aaa(lp4866
S'use safe primes'
p4867
a(lp4868
I1
aaa(lp4869
S'# challenges'
p4870
a(lp4871
I460
aaa(lp4872
S'# threads'
p4873
a(lp4874
I1
aaa(lp4875
g48
a(lp4876
S'262144'
p4877
aaatRp4878
ag2
((lp4879
(lp4880
S'Get key'
p4881
a(lp4882
F0.044629099999999998
aaa(lp4883
S'Create tag'
p4884
a(lp4885
F8691.7453098000005
aaa(lp4886
S'Create challenge'
p4887
a(lp4888
F0.2267661
aaa(lp4889
S'Sanitize challenge'
p4890
a(lp4891
F1.29e-05
aaa(lp4892
S'Create proof'
p4893
a(lp4894
F1048.3654978
aaa(lp4895
S'Verify file'
p4896
a(lp4897
F0.072467799999999999
aaa(lp4898
S'HEAD'
p4899
a(lp4900
I0
aaa(lp4901
S'GET'
p4902
a(lp4903
I0
aaa(lp4904
S'PUT'
p4905
a(lp4906
I0
aaa(lp4907
S'COPY'
p4908
a(lp4909
I0
aaa(lp4910
S'LIST'
p4911
a(lp4912
I0
aaa(lp4913
S'POST'
p4914
a(lp4915
I0
aaa(lp4916
S'Metadata'
p4917
a(lp4918
S'PDP:Block size 16384:PRF key size 20:PRP key size 16:RSA key size 1024:use E-PDP 1:use safe primes 1:# challenges 460:# threads 1:Filename ../../test-files/testfile_rand_524288KB'
p4919
aaa(lp4920
S'Timestamp'
p4921
a(lp4922
I1347342648
aaa(lp4923
S'Block size'
p4924
a(lp4925
I16384
aaa(lp4926
S'PRF key size'
p4927
a(lp4928
I20
aaa(lp4929
S'PRP key size'
p4930
a(lp4931
I16
aaa(lp4932
S'RSA key size'
p4933
a(lp4934
I1024
aaa(lp4935
S'use E-PDP'
p4936
a(lp4937
I1
aaa(lp4938
S'use safe primes'
p4939
a(lp4940
I1
aaa(lp4941
S'# challenges'
p4942
a(lp4943
I460
aaa(lp4944
S'# threads'
p4945
a(lp4946
I1
aaa(lp4947
g48
a(lp4948
S'524288'
p4949
aaatRp4950
a.